

Microchip Technology PIC18 LITE Macro Assembler V1.35 build -356382666 
                                                                                               Tue Oct 31 16:11:29 2017

Microchip Technology Omniscient Code Generator v1.35 (Free mode) build 201507080246
     1                           	processor	18F4331
     2                           	fnconf	rparam,??,?,0
     3                           	opt	pw 120
     4                           	opt	lm
     5                           	psect	smallconst,global,reloc=2,class=SMALLCONST,delta=1
     6                           	psect	cinit,global,reloc=2,class=CODE,delta=1
     7                           	psect	bssCOMRAM,global,class=COMRAM,space=1,delta=1
     8                           	psect	cstackBANK0,global,class=BANK0,space=1,delta=1
     9                           	psect	cstackCOMRAM,global,class=COMRAM,space=1,delta=1
    10                           	psect	text0,global,reloc=2,class=CODE,delta=1
    11                           	psect	text1,global,reloc=2,class=CODE,delta=1
    12                           	psect	text2,global,reloc=2,class=CODE,delta=1
    13                           	psect	text3,global,reloc=2,class=CODE,delta=1
    14                           	psect	text4,global,reloc=2,class=CODE,delta=1
    15                           	psect	text5,global,reloc=2,class=CODE,delta=1
    16                           	psect	intcode,global,reloc=2,class=CODE,delta=1
    17                           	psect	text7,global,reloc=2,class=CODE,delta=1
    18                           	psect	text8,global,reloc=2,class=CODE,delta=1
    19                           	psect	text9,global,reloc=2,class=CODE,delta=1
    20                           	psect	text10,global,reloc=2,class=CODE,delta=1
    21                           	psect	text11,global,reloc=2,class=CODE,delta=1
    22                           	psect	text12,global,reloc=2,class=CODE,delta=1
    23                           	psect	text13,global,reloc=2,class=CODE,delta=1
    24                           	psect	intsave_regs,global,class=BIGRAM,space=1,delta=1
    25                           	psect	rparam,global,class=COMRAM,space=1,delta=1
    26                           	psect	temp,global,ovrld,common,class=COMRAM,space=1,delta=1
    27  0000                     
    28                           	psect	smallconst
    29  000300                     __psmallconst:
    30                           	opt stack 0
    31  000300  00                 	db	0
    32  000301                     _dpowers:
    33                           	opt stack 0
    34  000301  0001               	dw	1
    35  000303  000A               	dw	10
    36  000305  0064               	dw	100
    37  000307  03E8               	dw	1000
    38  000309  2710               	dw	10000
    39  00030B                     __end_of_dpowers:
    40                           	opt stack 0
    41  0000                     _INTCONbits	set	4082
    42  0000                     _LATAbits	set	3977
    43  0000                     _LATCbits	set	3979
    44  0000                     _LATDbits	set	3980
    45  0000                     _OSCCON	set	4051
    46  0000                     _OSCCONbits	set	4051
    47  0000                     _TRISAbits	set	3986
    48  0000                     _TRISC	set	3988
    49  0000                     _TRISCbits	set	3988
    50  0000                     _TRISD	set	3989
    51  00030B                     STR_1:
    52  00030B  25                 	db	37
    53  00030C  64                 	db	100	;'d'
    54  00030D  00                 	db	0
    55                           
    56                           ; #config settings
    57  00030E  00                 	db	0	; dummy byte at the end
    58  0000                     
    59                           	psect	cinit
    60  000784                     __pcinit:
    61                           	opt stack 0
    62  000784                     start_initialization:
    63                           	opt stack 0
    64  000784                     __initialization:
    65                           	opt stack 0
    66                           
    67                           ; Clear objects allocated to COMRAM (42 bytes)
    68  000784  EE00  F001         	lfsr	0,__pbssCOMRAM
    69  000788  0E2A               	movlw	42
    70  00078A                     clear_0:
    71  00078A  6AEE               	clrf	postinc0,c
    72  00078C  06E8               	decf	wreg,f,c
    73  00078E  E1FD               	bnz	clear_0
    74  000790                     end_of_initialization:
    75                           	opt stack 0
    76  000790                     __end_of__initialization:
    77                           	opt stack 0
    78  000790  9054               	bcf	int$flags,0,c	;clear compiler interrupt flag (level 1)
    79  000792  9254               	bcf	int$flags,1,c	;clear compiler interrupt flag (level 2)
    80  000794  0E00               	movlw	low (__Lmediumconst shr (0+16))
    81  000796  6EF8               	movwf	tblptru,c
    82  000798  0100               	movlb	0
    83  00079A  EFCF  F003         	goto	_main	;jump to C main() function
    84                           tblptru	equ	0xFF8
    85                           postinc0	equ	0xFEE
    86                           wreg	equ	0xFE8
    87                           
    88                           	psect	bssCOMRAM
    89  000001                     __pbssCOMRAM:
    90                           	opt stack 0
    91  000001                     _btnCount:
    92                           	opt stack 0
    93  000001                     	ds	2
    94  000003                     _buf:
    95                           	opt stack 0
    96  000003                     	ds	40
    97                           tblptru	equ	0xFF8
    98                           postinc0	equ	0xFEE
    99                           wreg	equ	0xFE8
   100                           
   101                           	psect	cstackBANK0
   102  000060                     __pcstackBANK0:
   103                           	opt stack 0
   104  000060                     ??_LCDout:
   105                           
   106                           ; 0 bytes @ 0x0
   107  000060                     	ds	1
   108  000061                     LCDout@number:
   109                           	opt stack 0
   110                           
   111                           ; 1 bytes @ 0x1
   112  000061                     	ds	1
   113  000062                     SendLCD@type:
   114                           	opt stack 0
   115                           
   116                           ; 1 bytes @ 0x2
   117  000062                     	ds	1
   118  000063                     SendLCD@Byte:
   119                           	opt stack 0
   120                           
   121                           ; 1 bytes @ 0x3
   122  000063                     	ds	1
   123  000064                     ??_LCD_Init:
   124  000064                     SetLine@line:
   125                           	opt stack 0
   126                           
   127                           ; 1 bytes @ 0x4
   128  000064                     	ds	1
   129  000065                     tblptru	equ	0xFF8
   130                           postinc0	equ	0xFEE
   131                           wreg	equ	0xFE8
   132                           
   133                           ; 0 bytes @ 0x5
   134                           
   135                           	psect	cstackCOMRAM
   136  00002B                     __pcstackCOMRAM:
   137                           	opt stack 0
   138  00002B                     ??i2_LCDout:
   139  00002B                     ?___lwdiv:
   140                           	opt stack 0
   141  00002B                     ___lwdiv@dividend:
   142                           	opt stack 0
   143                           
   144                           ; 2 bytes @ 0x0
   145  00002B                     	ds	1
   146  00002C                     i2LCDout@number:
   147                           	opt stack 0
   148                           
   149                           ; 1 bytes @ 0x1
   150  00002C                     	ds	1
   151  00002D                     i2SendLCD@type:
   152                           	opt stack 0
   153  00002D                     ___lwdiv@divisor:
   154                           	opt stack 0
   155                           
   156                           ; 2 bytes @ 0x2
   157  00002D                     	ds	1
   158  00002E                     i2SendLCD@Byte:
   159                           	opt stack 0
   160                           
   161                           ; 1 bytes @ 0x3
   162  00002E                     	ds	1
   163  00002F                     LCD_String@string:
   164                           	opt stack 0
   165  00002F                     ___lwdiv@quotient:
   166                           	opt stack 0
   167                           
   168                           ; 2 bytes @ 0x4
   169  00002F                     	ds	2
   170  000031                     ??_LCD_String:
   171  000031                     ___lwdiv@counter:
   172                           	opt stack 0
   173                           
   174                           ; 1 bytes @ 0x6
   175  000031                     	ds	1
   176  000032                     ?___lwmod:
   177                           	opt stack 0
   178  000032                     ___lwmod@dividend:
   179                           	opt stack 0
   180                           
   181                           ; 2 bytes @ 0x7
   182  000032                     	ds	2
   183  000034                     ___lwmod@divisor:
   184                           	opt stack 0
   185                           
   186                           ; 2 bytes @ 0x9
   187  000034                     	ds	2
   188  000036                     ___lwmod@counter:
   189                           	opt stack 0
   190                           
   191                           ; 1 bytes @ 0xB
   192  000036                     	ds	1
   193  000037                     ?_sprintf:
   194                           	opt stack 0
   195  000037                     sprintf@sp:
   196                           	opt stack 0
   197                           
   198                           ; 2 bytes @ 0xC
   199  000037                     	ds	2
   200  000039                     sprintf@f:
   201                           	opt stack 0
   202                           
   203                           ; 2 bytes @ 0xE
   204  000039                     	ds	4
   205  00003D                     ??_sprintf:
   206                           
   207                           ; 0 bytes @ 0x12
   208  00003D                     	ds	1
   209  00003E                     sprintf@ap:
   210                           	opt stack 0
   211                           
   212                           ; 2 bytes @ 0x13
   213  00003E                     	ds	2
   214  000040                     sprintf@flag:
   215                           	opt stack 0
   216                           
   217                           ; 1 bytes @ 0x15
   218  000040                     	ds	1
   219  000041                     sprintf@prec:
   220                           	opt stack 0
   221                           
   222                           ; 1 bytes @ 0x16
   223  000041                     	ds	1
   224  000042                     sprintf@val:
   225                           	opt stack 0
   226                           
   227                           ; 2 bytes @ 0x17
   228  000042                     	ds	2
   229  000044                     sprintf@c:
   230                           	opt stack 0
   231                           
   232                           ; 1 bytes @ 0x19
   233  000044                     	ds	1
   234  000045                     ??_InterruptHandlerHigh:
   235                           
   236                           ; 0 bytes @ 0x1A
   237  000045                     	ds	15
   238                           tblptru	equ	0xFF8
   239                           postinc0	equ	0xFEE
   240                           wreg	equ	0xFE8
   241                           
   242 ;;
   243 ;;Main: autosize = 0, tempsize = 0, incstack = 0, save=0
   244 ;;
   245 ;; *************** function _main *****************
   246 ;; Defined at:
   247 ;;		line 24 in file "main.c"
   248 ;; Parameters:    Size  Location     Type
   249 ;;		None
   250 ;; Auto vars:     Size  Location     Type
   251 ;;		None
   252 ;; Return value:  Size  Location     Type
   253 ;;		None               void
   254 ;; Registers used:
   255 ;;		wreg, status,2, status,0, cstack
   256 ;; Tracked objects:
   257 ;;		On entry : 0/0
   258 ;;		On exit  : 0/0
   259 ;;		Unchanged: 0/0
   260 ;; Data sizes:     COMRAM   BANK0   BANK1   BANK2
   261 ;;      Params:         0       0       0       0
   262 ;;      Locals:         0       0       0       0
   263 ;;      Temps:          0       0       0       0
   264 ;;      Totals:         0       0       0       0
   265 ;;Total ram usage:        0 bytes
   266 ;; Hardware stack levels required when called:    9
   267 ;; This function calls:
   268 ;;		_LCD_Init
   269 ;;		_SetLine
   270 ;; This function is called by:
   271 ;;		Startup code after reset
   272 ;; This function uses a non-reentrant model
   273 ;;
   274                           
   275                           	psect	text0
   276  00079E                     __ptext0:
   277                           	opt stack 0
   278  00079E                     _main:
   279                           	opt stack 22
   280                           
   281                           ;main.c: 25: OSCCON = 0x72;
   282                           
   283                           ;incstack = 0
   284  00079E  0E72               	movlw	114
   285  0007A0  6ED3               	movwf	4051,c	;volatile
   286  0007A2                     l56:
   287  0007A2  A4D3               	btfss	4051,2,c	;volatile
   288  0007A4  D7FE               	goto	l56
   289                           
   290                           ;main.c: 29: TRISCbits.RC3 = 1;
   291  0007A6  8694               	bsf	3988,3,c	;volatile
   292                           
   293                           ;main.c: 30: INTCONbits.GIEH = 1;
   294  0007A8  8EF2               	bsf	intcon,7,c	;volatile
   295                           
   296                           ;main.c: 31: INTCONbits.INT0IE = 1;
   297  0007AA  88F2               	bsf	intcon,4,c	;volatile
   298                           
   299                           ;main.c: 33: LCD_Init();
   300  0007AC  EC2C  F002         	call	_LCD_Init	;wreg free
   301                           
   302                           ;main.c: 34: SetLine(1);
   303  0007B0  0E01               	movlw	1
   304  0007B2  EC38  F003         	call	_SetLine
   305  0007B6  D7FF               	goto	l60
   306  0007B8                     __end_of_main:
   307                           	opt stack 0
   308                           tblptru	equ	0xFF8
   309                           intcon	equ	0xFF2
   310                           postinc0	equ	0xFEE
   311                           wreg	equ	0xFE8
   312                           
   313 ;; *************** function _SetLine *****************
   314 ;; Defined at:
   315 ;;		line 93 in file "lcd.h"
   316 ;; Parameters:    Size  Location     Type
   317 ;;  line            1    wreg     unsigned char 
   318 ;; Auto vars:     Size  Location     Type
   319 ;;  line            1    4[BANK0 ] unsigned char 
   320 ;; Return value:  Size  Location     Type
   321 ;;		None               void
   322 ;; Registers used:
   323 ;;		wreg, status,2, status,0, cstack
   324 ;; Tracked objects:
   325 ;;		On entry : 0/0
   326 ;;		On exit  : 0/0
   327 ;;		Unchanged: 0/0
   328 ;; Data sizes:     COMRAM   BANK0   BANK1   BANK2
   329 ;;      Params:         0       0       0       0
   330 ;;      Locals:         0       1       0       0
   331 ;;      Temps:          0       0       0       0
   332 ;;      Totals:         0       1       0       0
   333 ;;Total ram usage:        1 bytes
   334 ;; Hardware stack levels used:    1
   335 ;; Hardware stack levels required when called:    8
   336 ;; This function calls:
   337 ;;		_SendLCD
   338 ;; This function is called by:
   339 ;;		_main
   340 ;; This function uses a non-reentrant model
   341 ;;
   342                           
   343                           	psect	text1
   344  000670                     __ptext1:
   345                           	opt stack 0
   346  000670                     _SetLine:
   347                           	opt stack 22
   348                           
   349                           ;incstack = 0
   350                           ;SetLine@line stored from wreg
   351  000670  0100               	movlb	0	; () banked
   352  000672  6F64               	movwf	SetLine@line& (0+255),b
   353                           
   354                           ;lcd.h: 96: if(line == 1) {
   355  000674  0100               	movlb	0	; () banked
   356  000676  0564               	decf	SetLine@line& (0+255),w,b
   357  000678  A4D8               	btfss	status,2,c
   358  00067A  D007               	goto	l1220
   359                           
   360                           ; BSR set to: 0
   361                           ;lcd.h: 97: SendLCD(0x80,0);
   362  00067C  0E00               	movlw	0
   363  00067E  0100               	movlb	0	; () banked
   364  000680  6F62               	movwf	SendLCD@type& (0+255),b
   365  000682  0E80               	movlw	128
   366  000684  EC98  F003         	call	_SendLCD
   367                           
   368                           ;lcd.h: 98: } else if (line == 2) {
   369  000688  D012               	goto	l1226
   370  00068A                     l1220:
   371  00068A  0E02               	movlw	2
   372  00068C  0100               	movlb	0	; () banked
   373  00068E  1964               	xorwf	SetLine@line& (0+255),w,b
   374  000690  A4D8               	btfss	status,2,c
   375  000692  D007               	goto	l1224
   376                           
   377                           ; BSR set to: 0
   378                           ;lcd.h: 99: SendLCD(0xC0,0);
   379  000694  0E00               	movlw	0
   380  000696  0100               	movlb	0	; () banked
   381  000698  6F62               	movwf	SendLCD@type& (0+255),b
   382  00069A  0EC0               	movlw	192
   383  00069C  EC98  F003         	call	_SendLCD
   384                           
   385                           ;lcd.h: 100: } else {
   386  0006A0  D006               	goto	l1226
   387  0006A2                     l1224:
   388                           
   389                           ;lcd.h: 101: SendLCD(0x80,0);
   390  0006A2  0E00               	movlw	0
   391  0006A4  0100               	movlb	0	; () banked
   392  0006A6  6F62               	movwf	SendLCD@type& (0+255),b
   393  0006A8  0E80               	movlw	128
   394  0006AA  EC98  F003         	call	_SendLCD
   395  0006AE                     l1226:
   396                           
   397                           ;lcd.h: 102: }
   398                           ;lcd.h: 103: _delay((unsigned long)((50)*(8000000/4000000.0)));
   399  0006AE  0E21               	movlw	33
   400  0006B0                     u477:
   401  0006B0  2EE8               	decfsz	wreg,f,c
   402  0006B2  D7FE               	goto	u477
   403  0006B4  F000               	nop	
   404  0006B6  0012               	return		;funcret
   405  0006B8                     __end_of_SetLine:
   406                           	opt stack 0
   407                           tblptru	equ	0xFF8
   408                           intcon	equ	0xFF2
   409                           postinc0	equ	0xFEE
   410                           wreg	equ	0xFE8
   411                           status	equ	0xFD8
   412                           
   413 ;; *************** function _LCD_Init *****************
   414 ;; Defined at:
   415 ;;		line 55 in file "lcd.h"
   416 ;; Parameters:    Size  Location     Type
   417 ;;		None
   418 ;; Auto vars:     Size  Location     Type
   419 ;;		None
   420 ;; Return value:  Size  Location     Type
   421 ;;		None               void
   422 ;; Registers used:
   423 ;;		wreg, status,2, status,0, cstack
   424 ;; Tracked objects:
   425 ;;		On entry : 0/0
   426 ;;		On exit  : 0/0
   427 ;;		Unchanged: 0/0
   428 ;; Data sizes:     COMRAM   BANK0   BANK1   BANK2
   429 ;;      Params:         0       0       0       0
   430 ;;      Locals:         0       0       0       0
   431 ;;      Temps:          0       1       0       0
   432 ;;      Totals:         0       1       0       0
   433 ;;Total ram usage:        1 bytes
   434 ;; Hardware stack levels used:    1
   435 ;; Hardware stack levels required when called:    8
   436 ;; This function calls:
   437 ;;		_LCDout
   438 ;;		_SendLCD
   439 ;; This function is called by:
   440 ;;		_main
   441 ;; This function uses a non-reentrant model
   442 ;;
   443                           
   444                           	psect	text2
   445  000458                     __ptext2:
   446                           	opt stack 0
   447  000458                     _LCD_Init:
   448                           	opt stack 22
   449                           
   450                           ;lcd.h: 57: TRISAbits.RA6 = 0;
   451                           
   452                           ;incstack = 0
   453  000458  9C92               	bcf	3986,6,c	;volatile
   454                           
   455                           ;lcd.h: 58: TRISC &= 0b11111000;
   456  00045A  0EF8               	movlw	248
   457  00045C  1694               	andwf	3988,f,c	;volatile
   458                           
   459                           ;lcd.h: 59: TRISD &= 0b11111100;
   460  00045E  0EFC               	movlw	252
   461  000460  1695               	andwf	3989,f,c	;volatile
   462                           
   463                           ;lcd.h: 61: LATCbits.LC0 = 0;
   464  000462  908B               	bcf	3979,0,c	;volatile
   465                           
   466                           ;lcd.h: 62: LATAbits.LATA6 = 0;
   467  000464  9C89               	bcf	3977,6,c	;volatile
   468                           
   469                           ;lcd.h: 63: LATDbits.LD1 = 0;
   470  000466  928C               	bcf	3980,1,c	;volatile
   471                           
   472                           ;lcd.h: 64: LATDbits.LD0 = 0;
   473  000468  908C               	bcf	3980,0,c	;volatile
   474                           
   475                           ;lcd.h: 65: LATCbits.LC2 = 0;
   476  00046A  948B               	bcf	3979,2,c	;volatile
   477                           
   478                           ;lcd.h: 66: LATCbits.LC1 = 0;
   479  00046C  928B               	bcf	3979,1,c	;volatile
   480                           
   481                           ;lcd.h: 69: LCDout(0b0011);
   482  00046E  0E03               	movlw	3
   483  000470  EC85  F002         	call	_LCDout
   484                           
   485                           ;lcd.h: 70: _delay((unsigned long)((5000)*(8000000/4000000.0)));
   486  000474  0E0D               	movlw	13
   487  000476  0100               	movlb	0	; () banked
   488  000478  6F64               	movwf	??_LCD_Init& (0+255),b
   489  00047A  0EFC               	movlw	252
   490  00047C                     u487:
   491  00047C  2EE8               	decfsz	wreg,f,c
   492  00047E  D7FE               	goto	u487
   493  000480  2F64               	decfsz	??_LCD_Init& (0+255),f,b
   494  000482  D7FC               	goto	u487
   495                           
   496                           ;lcd.h: 71: LCDout(0b0011);
   497  000484  0E03               	movlw	3
   498  000486  EC85  F002         	call	_LCDout
   499                           
   500                           ;lcd.h: 72: _delay((unsigned long)((200)*(8000000/4000000.0)));
   501  00048A  0E85               	movlw	133
   502  00048C                     u497:
   503  00048C  2EE8               	decfsz	wreg,f,c
   504  00048E  D7FE               	goto	u497
   505  000490  F000               	nop	
   506                           
   507                           ;lcd.h: 73: LCDout(0b0011);
   508  000492  0E03               	movlw	3
   509  000494  EC85  F002         	call	_LCDout
   510                           
   511                           ;lcd.h: 74: _delay((unsigned long)((50)*(8000000/4000000.0)));
   512  000498  0E21               	movlw	33
   513  00049A                     u507:
   514  00049A  2EE8               	decfsz	wreg,f,c
   515  00049C  D7FE               	goto	u507
   516  00049E  F000               	nop	
   517                           
   518                           ;lcd.h: 76: LCDout(0b0010);
   519  0004A0  0E02               	movlw	2
   520  0004A2  EC85  F002         	call	_LCDout
   521                           
   522                           ;lcd.h: 77: _delay((unsigned long)((50)*(8000000/4000000.0)));
   523  0004A6  0E21               	movlw	33
   524  0004A8                     u517:
   525  0004A8  2EE8               	decfsz	wreg,f,c
   526  0004AA  D7FE               	goto	u517
   527  0004AC  F000               	nop	
   528                           
   529                           ;lcd.h: 79: SendLCD(0b00001000,0);
   530  0004AE  0E00               	movlw	0
   531  0004B0  0100               	movlb	0	; () banked
   532  0004B2  6F62               	movwf	SendLCD@type& (0+255),b
   533  0004B4  0E08               	movlw	8
   534  0004B6  EC98  F003         	call	_SendLCD
   535                           
   536                           ;lcd.h: 80: _delay((unsigned long)((50)*(8000000/4000000.0)));
   537  0004BA  0E21               	movlw	33
   538  0004BC                     u527:
   539  0004BC  2EE8               	decfsz	wreg,f,c
   540  0004BE  D7FE               	goto	u527
   541  0004C0  F000               	nop	
   542                           
   543                           ;lcd.h: 82: SendLCD(0b00000001,0);
   544  0004C2  0E00               	movlw	0
   545  0004C4  0100               	movlb	0	; () banked
   546  0004C6  6F62               	movwf	SendLCD@type& (0+255),b
   547  0004C8  0E01               	movlw	1
   548  0004CA  EC98  F003         	call	_SendLCD
   549                           
   550                           ;lcd.h: 83: _delay((unsigned long)((1700)*(8000000/4000000.0)));
   551  0004CE  0E05               	movlw	5
   552  0004D0  0100               	movlb	0	; () banked
   553  0004D2  6F64               	movwf	??_LCD_Init& (0+255),b
   554  0004D4  0E69               	movlw	105
   555  0004D6                     u537:
   556  0004D6  2EE8               	decfsz	wreg,f,c
   557  0004D8  D7FE               	goto	u537
   558  0004DA  2F64               	decfsz	??_LCD_Init& (0+255),f,b
   559  0004DC  D7FC               	goto	u537
   560  0004DE  F000               	nop	
   561                           
   562                           ;lcd.h: 85: SendLCD(0b00000110,0);
   563  0004E0  0E00               	movlw	0
   564  0004E2  0100               	movlb	0	; () banked
   565  0004E4  6F62               	movwf	SendLCD@type& (0+255),b
   566  0004E6  0E06               	movlw	6
   567  0004E8  EC98  F003         	call	_SendLCD
   568                           
   569                           ;lcd.h: 86: _delay((unsigned long)((50)*(8000000/4000000.0)));
   570  0004EC  0E21               	movlw	33
   571  0004EE                     u547:
   572  0004EE  2EE8               	decfsz	wreg,f,c
   573  0004F0  D7FE               	goto	u547
   574  0004F2  F000               	nop	
   575                           
   576                           ;lcd.h: 88: SendLCD(0b00001110, 0);
   577  0004F4  0E00               	movlw	0
   578  0004F6  0100               	movlb	0	; () banked
   579  0004F8  6F62               	movwf	SendLCD@type& (0+255),b
   580  0004FA  0E0E               	movlw	14
   581  0004FC  EC98  F003         	call	_SendLCD
   582                           
   583                           ;lcd.h: 89: _delay((unsigned long)((50)*(8000000/4000000.0)));
   584  000500  0E21               	movlw	33
   585  000502                     u557:
   586  000502  2EE8               	decfsz	wreg,f,c
   587  000504  D7FE               	goto	u557
   588  000506  F000               	nop	
   589  000508  0012               	return		;funcret
   590  00050A                     __end_of_LCD_Init:
   591                           	opt stack 0
   592                           tblptru	equ	0xFF8
   593                           intcon	equ	0xFF2
   594                           postinc0	equ	0xFEE
   595                           wreg	equ	0xFE8
   596                           status	equ	0xFD8
   597                           
   598 ;; *************** function _SendLCD *****************
   599 ;; Defined at:
   600 ;;		line 45 in file "lcd.h"
   601 ;; Parameters:    Size  Location     Type
   602 ;;  Byte            1    wreg     unsigned char 
   603 ;;  type            1    2[BANK0 ] unsigned char 
   604 ;; Auto vars:     Size  Location     Type
   605 ;;  Byte            1    3[BANK0 ] unsigned char 
   606 ;; Return value:  Size  Location     Type
   607 ;;		None               void
   608 ;; Registers used:
   609 ;;		wreg, status,2, status,0, cstack
   610 ;; Tracked objects:
   611 ;;		On entry : 0/0
   612 ;;		On exit  : 0/0
   613 ;;		Unchanged: 0/0
   614 ;; Data sizes:     COMRAM   BANK0   BANK1   BANK2
   615 ;;      Params:         0       1       0       0
   616 ;;      Locals:         0       1       0       0
   617 ;;      Temps:          0       0       0       0
   618 ;;      Totals:         0       2       0       0
   619 ;;Total ram usage:        2 bytes
   620 ;; Hardware stack levels used:    1
   621 ;; Hardware stack levels required when called:    7
   622 ;; This function calls:
   623 ;;		_LCDout
   624 ;; This function is called by:
   625 ;;		_LCD_Init
   626 ;;		_SetLine
   627 ;; This function uses a non-reentrant model
   628 ;;
   629                           
   630                           	psect	text3
   631  000730                     __ptext3:
   632                           	opt stack 0
   633  000730                     _SendLCD:
   634                           	opt stack 22
   635                           
   636                           ;incstack = 0
   637                           ;SendLCD@Byte stored from wreg
   638  000730  0100               	movlb	0	; () banked
   639  000732  6F63               	movwf	SendLCD@Byte& (0+255),b
   640                           
   641                           ;lcd.h: 48: LATAbits.LATA6 = type;
   642  000734  0100               	movlb	0	; () banked
   643  000736  B162               	btfsc	SendLCD@type& (0+255),0,b
   644  000738  D002               	bra	u435
   645  00073A  9C89               	bcf	3977,6,c	;volatile
   646  00073C  D001               	bra	u436
   647  00073E                     u435:
   648  00073E  8C89               	bsf	3977,6,c	;volatile
   649  000740                     u436:
   650                           
   651                           ;lcd.h: 50: LCDout(Byte >> 4);
   652  000740  0100               	movlb	0	; () banked
   653  000742  3963               	swapf	SendLCD@Byte& (0+255),w,b
   654  000744  0B0F               	andlw	15
   655  000746  EC85  F002         	call	_LCDout
   656                           
   657                           ;lcd.h: 51: _delay((unsigned long)((10)*(8000000/4000000.0)));
   658  00074A  0E06               	movlw	6
   659  00074C                     u567:
   660  00074C  2EE8               	decfsz	wreg,f,c
   661  00074E  D7FE               	goto	u567
   662  000750  D000               	nop2		;nop
   663                           
   664                           ;lcd.h: 53: LCDout(Byte & 0b00001111);
   665  000752  0100               	movlb	0	; () banked
   666  000754  5163               	movf	SendLCD@Byte& (0+255),w,b
   667  000756  0B0F               	andlw	15
   668  000758  EC85  F002         	call	_LCDout
   669  00075C  0012               	return		;funcret
   670  00075E                     __end_of_SendLCD:
   671                           	opt stack 0
   672                           tblptru	equ	0xFF8
   673                           intcon	equ	0xFF2
   674                           postinc0	equ	0xFEE
   675                           wreg	equ	0xFE8
   676                           status	equ	0xFD8
   677                           
   678 ;; *************** function _LCDout *****************
   679 ;; Defined at:
   680 ;;		line 33 in file "lcd.h"
   681 ;; Parameters:    Size  Location     Type
   682 ;;  number          1    wreg     unsigned char 
   683 ;; Auto vars:     Size  Location     Type
   684 ;;  number          1    1[BANK0 ] unsigned char 
   685 ;; Return value:  Size  Location     Type
   686 ;;		None               void
   687 ;; Registers used:
   688 ;;		wreg, status,2, status,0, cstack
   689 ;; Tracked objects:
   690 ;;		On entry : 0/0
   691 ;;		On exit  : 0/0
   692 ;;		Unchanged: 0/0
   693 ;; Data sizes:     COMRAM   BANK0   BANK1   BANK2
   694 ;;      Params:         0       0       0       0
   695 ;;      Locals:         0       1       0       0
   696 ;;      Temps:          0       1       0       0
   697 ;;      Totals:         0       2       0       0
   698 ;;Total ram usage:        2 bytes
   699 ;; Hardware stack levels used:    1
   700 ;; Hardware stack levels required when called:    6
   701 ;; This function calls:
   702 ;;		_E_TOG
   703 ;; This function is called by:
   704 ;;		_SendLCD
   705 ;;		_LCD_Init
   706 ;; This function uses a non-reentrant model
   707 ;;
   708                           
   709                           	psect	text4
   710  00050A                     __ptext4:
   711                           	opt stack 0
   712  00050A                     _LCDout:
   713                           	opt stack 22
   714                           
   715                           ;incstack = 0
   716                           ;LCDout@number stored from wreg
   717  00050A  0100               	movlb	0	; () banked
   718  00050C  6F61               	movwf	LCDout@number& (0+255),b
   719                           
   720                           ;lcd.h: 35: LATDbits.LD1 = number >> 3 & 0b00000001;
   721  00050E  C061  F060         	movff	LCDout@number,??_LCDout
   722  000512  0100               	movlb	0	; () banked
   723  000514  90D8               	bcf	status,0,c
   724  000516  3360               	rrcf	??_LCDout& (0+255),f,b
   725  000518  0100               	movlb	0	; () banked
   726  00051A  90D8               	bcf	status,0,c
   727  00051C  3360               	rrcf	??_LCDout& (0+255),f,b
   728  00051E  0100               	movlb	0	; () banked
   729  000520  90D8               	bcf	status,0,c
   730  000522  3360               	rrcf	??_LCDout& (0+255),f,b
   731  000524  0E01               	movlw	1
   732  000526  0100               	movlb	0	; () banked
   733  000528  1760               	andwf	??_LCDout& (0+255),f,b
   734  00052A  0100               	movlb	0	; () banked
   735  00052C  4760               	rlncf	??_LCDout& (0+255),f,b
   736  00052E  508C               	movf	3980,w,c	;volatile
   737  000530  0100               	movlb	0	; () banked
   738  000532  1960               	xorwf	??_LCDout& (0+255),w,b
   739  000534  0BFD               	andlw	-3
   740  000536  1960               	xorwf	??_LCDout& (0+255),w,b
   741  000538  6E8C               	movwf	3980,c	;volatile
   742                           
   743                           ;lcd.h: 36: LATDbits.LD0 = (number >> 2) & 0b00000001;
   744  00053A  C061  F060         	movff	LCDout@number,??_LCDout
   745  00053E  0100               	movlb	0	; () banked
   746  000540  90D8               	bcf	status,0,c
   747  000542  3360               	rrcf	??_LCDout& (0+255),f,b
   748  000544  0100               	movlb	0	; () banked
   749  000546  90D8               	bcf	status,0,c
   750  000548  3360               	rrcf	??_LCDout& (0+255),f,b
   751  00054A  0E01               	movlw	1
   752  00054C  0100               	movlb	0	; () banked
   753  00054E  1760               	andwf	??_LCDout& (0+255),f,b
   754  000550  508C               	movf	3980,w,c	;volatile
   755  000552  0100               	movlb	0	; () banked
   756  000554  1960               	xorwf	??_LCDout& (0+255),w,b
   757  000556  0BFE               	andlw	-2
   758  000558  1960               	xorwf	??_LCDout& (0+255),w,b
   759  00055A  6E8C               	movwf	3980,c	;volatile
   760                           
   761                           ;lcd.h: 37: LATCbits.LC2 = (number >> 1) & 0b00000001;
   762  00055C  C061  F060         	movff	LCDout@number,??_LCDout
   763  000560  0100               	movlb	0	; () banked
   764  000562  90D8               	bcf	status,0,c
   765  000564  3360               	rrcf	??_LCDout& (0+255),f,b
   766  000566  0E01               	movlw	1
   767  000568  0100               	movlb	0	; () banked
   768  00056A  1760               	andwf	??_LCDout& (0+255),f,b
   769  00056C  0100               	movlb	0	; () banked
   770  00056E  4760               	rlncf	??_LCDout& (0+255),f,b
   771  000570  4760               	rlncf	??_LCDout& (0+255),f,b
   772  000572  508B               	movf	3979,w,c	;volatile
   773  000574  0100               	movlb	0	; () banked
   774  000576  1960               	xorwf	??_LCDout& (0+255),w,b
   775  000578  0BFB               	andlw	-5
   776  00057A  1960               	xorwf	??_LCDout& (0+255),w,b
   777  00057C  6E8B               	movwf	3979,c	;volatile
   778                           
   779                           ;lcd.h: 38: LATCbits.LC1 = number & 0b00000001;
   780  00057E  C061  F060         	movff	LCDout@number,??_LCDout
   781  000582  0E01               	movlw	1
   782  000584  0100               	movlb	0	; () banked
   783  000586  1760               	andwf	??_LCDout& (0+255),f,b
   784  000588  0100               	movlb	0	; () banked
   785  00058A  4760               	rlncf	??_LCDout& (0+255),f,b
   786  00058C  508B               	movf	3979,w,c	;volatile
   787  00058E  0100               	movlb	0	; () banked
   788  000590  1960               	xorwf	??_LCDout& (0+255),w,b
   789  000592  0BFD               	andlw	-3
   790  000594  1960               	xorwf	??_LCDout& (0+255),w,b
   791  000596  6E8B               	movwf	3979,c	;volatile
   792                           
   793                           ; BSR set to: 0
   794                           ;lcd.h: 40: E_TOG();
   795  000598  ECDC  F003         	call	_E_TOG	;wreg free
   796                           
   797                           ;lcd.h: 41: _delay((unsigned long)((5)*(8000000/4000000.0)));
   798  00059C  0E03               	movlw	3
   799  00059E                     u577:
   800  00059E  2EE8               	decfsz	wreg,f,c
   801  0005A0  D7FE               	goto	u577
   802  0005A2  F000               	nop	
   803  0005A4  0012               	return		;funcret
   804  0005A6                     __end_of_LCDout:
   805                           	opt stack 0
   806                           tblptru	equ	0xFF8
   807                           intcon	equ	0xFF2
   808                           postinc0	equ	0xFEE
   809                           wreg	equ	0xFE8
   810                           status	equ	0xFD8
   811                           
   812 ;; *************** function _E_TOG *****************
   813 ;; Defined at:
   814 ;;		line 26 in file "lcd.h"
   815 ;; Parameters:    Size  Location     Type
   816 ;;		None
   817 ;; Auto vars:     Size  Location     Type
   818 ;;		None
   819 ;; Return value:  Size  Location     Type
   820 ;;		None               void
   821 ;; Registers used:
   822 ;;		wreg
   823 ;; Tracked objects:
   824 ;;		On entry : 0/0
   825 ;;		On exit  : 0/0
   826 ;;		Unchanged: 0/0
   827 ;; Data sizes:     COMRAM   BANK0   BANK1   BANK2
   828 ;;      Params:         0       0       0       0
   829 ;;      Locals:         0       0       0       0
   830 ;;      Temps:          0       0       0       0
   831 ;;      Totals:         0       0       0       0
   832 ;;Total ram usage:        0 bytes
   833 ;; Hardware stack levels used:    1
   834 ;; Hardware stack levels required when called:    5
   835 ;; This function calls:
   836 ;;		Nothing
   837 ;; This function is called by:
   838 ;;		_LCDout
   839 ;; This function uses a non-reentrant model
   840 ;;
   841                           
   842                           	psect	text5
   843  0007B8                     __ptext5:
   844                           	opt stack 0
   845  0007B8                     _E_TOG:
   846                           	opt stack 22
   847                           
   848                           ;lcd.h: 27: LATCbits.LC0 = 1;
   849                           
   850                           ;incstack = 0
   851  0007B8  808B               	bsf	3979,0,c	;volatile
   852                           
   853                           ;lcd.h: 28: _delay((unsigned long)((5)*(8000000/4000000.0)));
   854  0007BA  0E03               	movlw	3
   855  0007BC                     u587:
   856  0007BC  2EE8               	decfsz	wreg,f,c
   857  0007BE  D7FE               	goto	u587
   858  0007C0  F000               	nop	
   859                           
   860                           ;lcd.h: 29: LATCbits.LC0 = 0;
   861  0007C2  908B               	bcf	3979,0,c	;volatile
   862  0007C4  0012               	return		;funcret
   863  0007C6                     __end_of_E_TOG:
   864                           	opt stack 0
   865                           tblptru	equ	0xFF8
   866                           intcon	equ	0xFF2
   867                           postinc0	equ	0xFEE
   868                           wreg	equ	0xFE8
   869                           status	equ	0xFD8
   870                           
   871 ;; *************** function _InterruptHandlerHigh *****************
   872 ;; Defined at:
   873 ;;		line 40 in file "main.c"
   874 ;; Parameters:    Size  Location     Type
   875 ;;		None
   876 ;; Auto vars:     Size  Location     Type
   877 ;;		None
   878 ;; Return value:  Size  Location     Type
   879 ;;		None               void
   880 ;; Registers used:
   881 ;;		wreg, fsr2l, fsr2h, status,2, status,0, tblptrl, tblptrh, tblptru, prodl, prodh, cstack
   882 ;; Tracked objects:
   883 ;;		On entry : 0/0
   884 ;;		On exit  : 0/0
   885 ;;		Unchanged: 0/0
   886 ;; Data sizes:     COMRAM   BANK0   BANK1   BANK2
   887 ;;      Params:         0       0       0       0
   888 ;;      Locals:         0       0       0       0
   889 ;;      Temps:         15       0       0       0
   890 ;;      Totals:        15       0       0       0
   891 ;;Total ram usage:       15 bytes
   892 ;; Hardware stack levels used:    1
   893 ;; Hardware stack levels required when called:    4
   894 ;; This function calls:
   895 ;;		_LCD_String
   896 ;;		_sprintf
   897 ;;		i2_SendLCD
   898 ;; This function is called by:
   899 ;;		Interrupt level 2
   900 ;; This function uses a non-reentrant model
   901 ;;
   902                           
   903                           	psect	intcode
   904  000008                     __pintcode:
   905                           	opt stack 0
   906  000008                     _InterruptHandlerHigh:
   907                           	opt stack 22
   908                           
   909                           ;incstack = 0
   910  000008  8254               	bsf	btemp,1,c	;set compiler interrupt flag (level 2)
   911  00000A  CFFA F046          	movff	pclath,??_InterruptHandlerHigh+1
   912  00000E  CFFB F047          	movff	pclatu,??_InterruptHandlerHigh+2
   913  000012  CFE9 F048          	movff	fsr0l,??_InterruptHandlerHigh+3
   914  000016  CFEA F049          	movff	fsr0h,??_InterruptHandlerHigh+4
   915  00001A  CFE1 F04A          	movff	fsr1l,??_InterruptHandlerHigh+5
   916  00001E  CFE2 F04B          	movff	fsr1h,??_InterruptHandlerHigh+6
   917  000022  CFD9 F04C          	movff	fsr2l,??_InterruptHandlerHigh+7
   918  000026  CFDA F04D          	movff	fsr2h,??_InterruptHandlerHigh+8
   919  00002A  CFF3 F04E          	movff	prodl,??_InterruptHandlerHigh+9
   920  00002E  CFF4 F04F          	movff	prodh,??_InterruptHandlerHigh+10
   921  000032  CFF6 F050          	movff	tblptrl,??_InterruptHandlerHigh+11
   922  000036  CFF7 F051          	movff	tblptrh,??_InterruptHandlerHigh+12
   923  00003A  CFF8 F052          	movff	tblptru,??_InterruptHandlerHigh+13
   924  00003E  CFF5 F053          	movff	tablat,??_InterruptHandlerHigh+14
   925                           
   926                           ;main.c: 41: if(INTCONbits.INT0IF) {
   927  000042  A2F2               	btfss	intcon,1,c	;volatile
   928  000044  D024               	goto	i2l66
   929                           
   930                           ;main.c: 42: btnCount++;
   931  000046  4A01               	infsnz	_btnCount,f,c	;volatile
   932  000048  2A02               	incf	_btnCount+1,f,c	;volatile
   933                           
   934                           ;main.c: 43: SendLCD(0b00000001, 0);
   935  00004A  0E00               	movlw	0
   936  00004C  6E2D               	movwf	i2SendLCD@type,c
   937  00004E  0E01               	movlw	1
   938  000050  ECAF  F003         	call	i2_SendLCD
   939                           
   940                           ;main.c: 44: _delay((unsigned long)((2)*(8000000/4000.0)));
   941  000054  0E06               	movlw	6
   942  000056  6E45               	movwf	??_InterruptHandlerHigh& (0+255),c
   943  000058  0E30               	movlw	48
   944  00005A                     i2u59_47:
   945  00005A  2EE8               	decfsz	wreg,f,c
   946  00005C  D7FE               	goto	i2u59_47
   947  00005E  2E45               	decfsz	??_InterruptHandlerHigh& (0+255),f,c
   948  000060  D7FC               	goto	i2u59_47
   949  000062  D000               	nop2	
   950                           
   951                           ;main.c: 45: sprintf(buf,"%d", btnCount);
   952  000064  0E03               	movlw	low _buf
   953  000066  6E37               	movwf	sprintf@sp,c
   954  000068  0E00               	movlw	high _buf
   955  00006A  6E38               	movwf	sprintf@sp+1,c
   956  00006C  0E0B               	movlw	low STR_1
   957  00006E  6E39               	movwf	sprintf@f,c
   958  000070  0E03               	movlw	high STR_1
   959  000072  6E3A               	movwf	sprintf@f+1,c
   960  000074  C001  F03B         	movff	_btnCount,?_sprintf+4	;volatile
   961  000078  C002  F03C         	movff	_btnCount+1,?_sprintf+5	;volatile
   962  00007C  EC88  F001         	call	_sprintf	;wreg free
   963                           
   964                           ;main.c: 46: LCD_String(buf);
   965  000080  0E03               	movlw	low _buf
   966  000082  6E2F               	movwf	LCD_String@string,c
   967  000084  0E00               	movlw	high _buf
   968  000086  6E30               	movwf	LCD_String@string+1,c
   969  000088  EC7D  F003         	call	_LCD_String	;wreg free
   970                           
   971                           ;main.c: 47: INTCONbits.INT0IF = 0;
   972  00008C  92F2               	bcf	intcon,1,c	;volatile
   973  00008E                     i2l66:
   974  00008E  C053  FFF5         	movff	??_InterruptHandlerHigh+14,tablat
   975  000092  C052  FFF8         	movff	??_InterruptHandlerHigh+13,tblptru
   976  000096  C051  FFF7         	movff	??_InterruptHandlerHigh+12,tblptrh
   977  00009A  C050  FFF6         	movff	??_InterruptHandlerHigh+11,tblptrl
   978  00009E  C04F  FFF4         	movff	??_InterruptHandlerHigh+10,prodh
   979  0000A2  C04E  FFF3         	movff	??_InterruptHandlerHigh+9,prodl
   980  0000A6  C04D  FFDA         	movff	??_InterruptHandlerHigh+8,fsr2h
   981  0000AA  C04C  FFD9         	movff	??_InterruptHandlerHigh+7,fsr2l
   982  0000AE  C04B  FFE2         	movff	??_InterruptHandlerHigh+6,fsr1h
   983  0000B2  C04A  FFE1         	movff	??_InterruptHandlerHigh+5,fsr1l
   984  0000B6  C049  FFEA         	movff	??_InterruptHandlerHigh+4,fsr0h
   985  0000BA  C048  FFE9         	movff	??_InterruptHandlerHigh+3,fsr0l
   986  0000BE  C047  FFFB         	movff	??_InterruptHandlerHigh+2,pclatu
   987  0000C2  C046  FFFA         	movff	??_InterruptHandlerHigh+1,pclath
   988  0000C6  9254               	bcf	btemp,1,c	;clear compiler interrupt flag (level 2)
   989  0000C8  0011               	retfie		f
   990  0000CA                     __end_of_InterruptHandlerHigh:
   991                           	opt stack 0
   992                           pclatu	equ	0xFFB
   993                           pclath	equ	0xFFA
   994                           tblptru	equ	0xFF8
   995                           tblptrh	equ	0xFF7
   996                           tblptrl	equ	0xFF6
   997                           tablat	equ	0xFF5
   998                           prodh	equ	0xFF4
   999                           prodl	equ	0xFF3
  1000                           intcon	equ	0xFF2
  1001                           postinc0	equ	0xFEE
  1002                           fsr0h	equ	0xFEA
  1003                           fsr0l	equ	0xFE9
  1004                           wreg	equ	0xFE8
  1005                           fsr1h	equ	0xFE2
  1006                           fsr1l	equ	0xFE1
  1007                           fsr2h	equ	0xFDA
  1008                           fsr2l	equ	0xFD9
  1009                           status	equ	0xFD8
  1010                           
  1011 ;; *************** function _sprintf *****************
  1012 ;; Defined at:
  1013 ;;		line 492 in file "C:\Program Files (x86)\Microchip\xc8\v1.35\sources\common\doprnt.c"
  1014 ;; Parameters:    Size  Location     Type
  1015 ;;  sp              2   12[COMRAM] PTR unsigned char 
  1016 ;;		 -> buf(40), 
  1017 ;;  f               2   14[COMRAM] PTR const unsigned char 
  1018 ;;		 -> STR_1(3), 
  1019 ;; Auto vars:     Size  Location     Type
  1020 ;;  tmpval          4    0        struct .
  1021 ;;  cp              3    0        PTR const unsigned char 
  1022 ;;  val             2   23[COMRAM] unsigned int 
  1023 ;;  ap              2   19[COMRAM] PTR void [1]
  1024 ;;		 -> ?_sprintf(2), 
  1025 ;;  len             2    0        unsigned int 
  1026 ;;  c               1   25[COMRAM] char 
  1027 ;;  prec            1   22[COMRAM] char 
  1028 ;;  flag            1   21[COMRAM] unsigned char 
  1029 ;; Return value:  Size  Location     Type
  1030 ;;                  2   12[COMRAM] int 
  1031 ;; Registers used:
  1032 ;;		wreg, fsr2l, fsr2h, status,2, status,0, tblptrl, tblptrh, tblptru, prodl, prodh, cstack
  1033 ;; Tracked objects:
  1034 ;;		On entry : 0/0
  1035 ;;		On exit  : 0/0
  1036 ;;		Unchanged: 0/0
  1037 ;; Data sizes:     COMRAM   BANK0   BANK1   BANK2
  1038 ;;      Params:         6       0       0       0
  1039 ;;      Locals:         7       0       0       0
  1040 ;;      Temps:          1       0       0       0
  1041 ;;      Totals:        14       0       0       0
  1042 ;;Total ram usage:       14 bytes
  1043 ;; Hardware stack levels used:    1
  1044 ;; Hardware stack levels required when called:    1
  1045 ;; This function calls:
  1046 ;;		___lwdiv
  1047 ;;		___lwmod
  1048 ;; This function is called by:
  1049 ;;		_InterruptHandlerHigh
  1050 ;; This function uses a non-reentrant model
  1051 ;;
  1052                           
  1053                           	psect	text7
  1054  000310                     __ptext7:
  1055                           	opt stack 0
  1056  000310                     _sprintf:
  1057                           	opt stack 24
  1058                           
  1059                           ;doprnt.c: 494: va_list ap;
  1060                           ;doprnt.c: 499: signed char c;
  1061                           ;doprnt.c: 506: signed char prec;
  1062                           ;doprnt.c: 508: unsigned char flag;
  1063                           ;doprnt.c: 523: union {
  1064                           ;doprnt.c: 524: unsigned long vd;
  1065                           ;doprnt.c: 525: double integ;
  1066                           ;doprnt.c: 526: } tmpval;
  1067                           ;doprnt.c: 528: unsigned int val;
  1068                           ;doprnt.c: 529: unsigned len;
  1069                           ;doprnt.c: 530: const char * cp;
  1070                           ;doprnt.c: 533: *ap = __va_start();
  1071                           
  1072                           ;incstack = 0
  1073  000310  0E3B               	movlw	low (?_sprintf+4)
  1074  000312  6E3E               	movwf	sprintf@ap,c
  1075  000314  0E00               	movlw	high (?_sprintf+4)
  1076  000316  6E3F               	movwf	sprintf@ap+1,c
  1077                           
  1078                           ;doprnt.c: 536: while(c = *f++) {
  1079  000318  D08C               	goto	i2l1124
  1080  00031A                     i2l1072:
  1081                           
  1082                           ;doprnt.c: 538: if(c != '%')
  1083  00031A  0E25               	movlw	37
  1084  00031C  1844               	xorwf	sprintf@c,w,c
  1085  00031E  B4D8               	btfsc	status,2,c
  1086  000320  D009               	goto	i2l1078
  1087                           
  1088                           ;doprnt.c: 540: {
  1089                           ;doprnt.c: 541: ((*sp++ = (c)));
  1090  000322  C037  FFD9         	movff	sprintf@sp,fsr2l
  1091  000326  C038  FFDA         	movff	sprintf@sp+1,fsr2h
  1092  00032A  C044  FFDF         	movff	sprintf@c,indf2
  1093  00032E  4A37               	infsnz	sprintf@sp,f,c
  1094  000330  2A38               	incf	sprintf@sp+1,f,c
  1095                           
  1096                           ;doprnt.c: 542: continue;
  1097  000332  D07F               	goto	i2l1124
  1098  000334                     i2l1078:
  1099                           
  1100                           ;doprnt.c: 543: }
  1101                           ;doprnt.c: 548: flag = 0;
  1102  000334  0E00               	movlw	0
  1103  000336  6E40               	movwf	sprintf@flag,c
  1104                           
  1105                           ;doprnt.c: 822: }
  1106                           
  1107                           ;doprnt.c: 813: continue;
  1108                           
  1109                           ;doprnt.c: 802: default:
  1110                           
  1111                           ;doprnt.c: 698: case 'i':
  1112                           ;doprnt.c: 699: break;
  1113                           
  1114                           ;doprnt.c: 697: case 'd':
  1115                           
  1116                           ;doprnt.c: 638: goto alldone;
  1117                           
  1118                           ;doprnt.c: 637: case 0:
  1119                           
  1120                           ;doprnt.c: 635: switch(c = *f++) {
  1121  000338  C039  FFF6         	movff	sprintf@f,tblptrl
  1122  00033C  C03A  FFF7         	movff	sprintf@f+1,tblptrh
  1123  000340  4A39               	infsnz	sprintf@f,f,c
  1124  000342  2A3A               	incf	sprintf@f+1,f,c
  1125  000344                     	if	0	;tblptru may be non-zero
  1126  000344                     	endif
  1127  000344                     	if	0	;tblptru may be non-zero
  1128  000344                     	endif
  1129  000344  0008               	tblrd		*
  1130  000346  CFF5 F044          	movff	tablat,sprintf@c
  1131  00034A  5044               	movf	sprintf@c,w,c
  1132                           
  1133                           ; Switch size 1, requested type "space"
  1134                           ; Number of cases is 3, Range of values is 0 to 105
  1135                           ; switch strategies available:
  1136                           ; Name         Instructions Cycles
  1137                           ; simple_byte           10     6 (average)
  1138                           ;	Chosen strategy is simple_byte
  1139  00034C  0A00               	xorlw	0	; case 0
  1140  00034E  B4D8               	btfsc	status,2,c
  1141  000350  D07C               	goto	i2l1126
  1142  000352  0A64               	xorlw	100	; case 100
  1143  000354  B4D8               	btfsc	status,2,c
  1144  000356  D003               	goto	i2l1084
  1145  000358  0A0D               	xorlw	13	; case 105
  1146  00035A  A4D8               	btfss	status,2,c
  1147  00035C  D06A               	goto	i2l1124
  1148  00035E                     i2l1084:
  1149                           
  1150                           ;doprnt.c: 1253: {
  1151                           ;doprnt.c: 1259: val = (int)(*(int *)__va_arg((*(int **)ap), (int)0));
  1152  00035E  C03E  FFD9         	movff	sprintf@ap,fsr2l
  1153  000362  C03F  FFDA         	movff	sprintf@ap+1,fsr2h
  1154  000366  CFDE F042          	movff	postinc2,sprintf@val
  1155  00036A  CFDD F043          	movff	postdec2,sprintf@val+1
  1156  00036E  0E02               	movlw	2
  1157  000370  263E               	addwf	sprintf@ap,f,c
  1158  000372  0E00               	movlw	0
  1159  000374  223F               	addwfc	sprintf@ap+1,f,c
  1160                           
  1161                           ;doprnt.c: 1261: if((int)val < 0) {
  1162  000376  AE43               	btfss	sprintf@val+1,7,c
  1163  000378  D006               	goto	i2l1094
  1164                           
  1165                           ;doprnt.c: 1262: flag |= 0x03;
  1166  00037A  0E03               	movlw	3
  1167  00037C  1240               	iorwf	sprintf@flag,f,c
  1168                           
  1169                           ;doprnt.c: 1263: val = -val;
  1170  00037E  6C42               	negf	sprintf@val,c
  1171  000380  1E43               	comf	sprintf@val+1,f,c
  1172  000382  B0D8               	btfsc	status,0,c
  1173  000384  2A43               	incf	sprintf@val+1,f,c
  1174  000386                     i2l1094:
  1175                           
  1176                           ;doprnt.c: 1264: }
  1177                           ;doprnt.c: 1266: }
  1178                           ;doprnt.c: 1305: for(c = 1 ; c != sizeof dpowers/sizeof dpowers[0] ; c++)
  1179  000386  0E01               	movlw	1
  1180  000388  6E44               	movwf	sprintf@c,c
  1181  00038A                     i2l1096:
  1182  00038A  0E05               	movlw	5
  1183  00038C  1844               	xorwf	sprintf@c,w,c
  1184  00038E  B4D8               	btfsc	status,2,c
  1185  000390  D012               	goto	i2l1108
  1186                           
  1187                           ;doprnt.c: 1306: if(val < dpowers[c])
  1188  000392  5044               	movf	sprintf@c,w,c
  1189  000394  0D02               	mullw	2
  1190  000396  0E01               	movlw	low _dpowers
  1191  000398  24F3               	addwf	prodl,w,c
  1192  00039A  6EF6               	movwf	tblptrl,c
  1193  00039C  0E03               	movlw	high _dpowers
  1194  00039E  20F4               	addwfc	prodh,w,c
  1195  0003A0  6EF7               	movwf	tblptrh,c
  1196  0003A2                     	if	0	;There are less than 3 active tblptr bytes
  1197  0003A2                     	endif
  1198  0003A2  0009               	tblrd		*+
  1199  0003A4  50F5               	movf	tablat,w,c
  1200  0003A6  5C42               	subwf	sprintf@val,w,c
  1201  0003A8  0009               	tblrd		*+
  1202  0003AA  50F5               	movf	tablat,w,c
  1203  0003AC  5843               	subwfb	sprintf@val+1,w,c
  1204  0003AE  A0D8               	btfss	status,0,c
  1205  0003B0  D002               	goto	i2l1108
  1206                           
  1207                           ;doprnt.c: 1307: break;
  1208  0003B2  2A44               	incf	sprintf@c,f,c
  1209  0003B4  D7EA               	goto	i2l1096
  1210  0003B6                     i2l1108:
  1211                           
  1212                           ;doprnt.c: 1422: {
  1213                           ;doprnt.c: 1438: if(flag & 0x03)
  1214  0003B6  C040  F03D         	movff	sprintf@flag,??_sprintf
  1215  0003BA  0E03               	movlw	3
  1216  0003BC  163D               	andwf	??_sprintf,f,c
  1217  0003BE  B4D8               	btfsc	status,2,c
  1218  0003C0  D008               	goto	i2l1114
  1219                           
  1220                           ;doprnt.c: 1439: ((*sp++ = ('-')));
  1221  0003C2  C037  FFD9         	movff	sprintf@sp,fsr2l
  1222  0003C6  C038  FFDA         	movff	sprintf@sp+1,fsr2h
  1223  0003CA  0E2D               	movlw	45
  1224  0003CC  6EDF               	movwf	indf2,c
  1225  0003CE  4A37               	infsnz	sprintf@sp,f,c
  1226  0003D0  2A38               	incf	sprintf@sp+1,f,c
  1227  0003D2                     i2l1114:
  1228                           
  1229                           ;doprnt.c: 1469: }
  1230                           ;doprnt.c: 1472: prec = c;
  1231  0003D2  C044  F041         	movff	sprintf@c,sprintf@prec
  1232                           
  1233                           ;doprnt.c: 1474: while(prec--) {
  1234  0003D6  D029               	goto	i2l1122
  1235  0003D8                     i2l1116:
  1236                           
  1237                           ;doprnt.c: 1478: {
  1238                           ;doprnt.c: 1489: c = (val / dpowers[prec]) % 10 + '0';
  1239  0003D8  5041               	movf	sprintf@prec,w,c
  1240  0003DA  0D02               	mullw	2
  1241  0003DC  0E01               	movlw	low _dpowers
  1242  0003DE  24F3               	addwf	prodl,w,c
  1243  0003E0  6EF6               	movwf	tblptrl,c
  1244  0003E2  0E03               	movlw	high _dpowers
  1245  0003E4  20F4               	addwfc	prodh,w,c
  1246  0003E6  6EF7               	movwf	tblptrh,c
  1247  0003E8                     	if	0	;There are less than 3 active tblptr bytes
  1248  0003E8                     	endif
  1249  0003E8  0009               	tblrd		*+
  1250  0003EA  CFF5 F02D          	movff	tablat,___lwdiv@divisor
  1251  0003EE  000A               	tblrd		*-
  1252  0003F0  CFF5 F02E          	movff	tablat,___lwdiv@divisor+1
  1253  0003F4  C042  F02B         	movff	sprintf@val,___lwdiv@dividend
  1254  0003F8  C043  F02C         	movff	sprintf@val+1,___lwdiv@dividend+1
  1255  0003FC  EC0F  F003         	call	___lwdiv	;wreg free
  1256  000400  C02B  F032         	movff	?___lwdiv,___lwmod@dividend
  1257  000404  C02C  F033         	movff	?___lwdiv+1,___lwmod@dividend+1
  1258  000408  0E00               	movlw	0
  1259  00040A  6E35               	movwf	___lwmod@divisor+1,c
  1260  00040C  0E0A               	movlw	10
  1261  00040E  6E34               	movwf	___lwmod@divisor,c
  1262  000410  EC5C  F003         	call	___lwmod	;wreg free
  1263  000414  5032               	movf	?___lwmod,w,c
  1264  000416  0F30               	addlw	48
  1265  000418  6E44               	movwf	sprintf@c,c
  1266                           
  1267                           ;doprnt.c: 1523: }
  1268                           ;doprnt.c: 1524: ((*sp++ = (c)));
  1269  00041A  C037  FFD9         	movff	sprintf@sp,fsr2l
  1270  00041E  C038  FFDA         	movff	sprintf@sp+1,fsr2h
  1271  000422  C044  FFDF         	movff	sprintf@c,indf2
  1272  000426  4A37               	infsnz	sprintf@sp,f,c
  1273  000428  2A38               	incf	sprintf@sp+1,f,c
  1274  00042A                     i2l1122:
  1275  00042A  0641               	decf	sprintf@prec,f,c
  1276  00042C  2841               	incf	sprintf@prec,w,c
  1277  00042E  A4D8               	btfss	status,2,c
  1278  000430  D7D3               	goto	i2l1116
  1279  000432                     i2l1124:
  1280  000432  C039  FFF6         	movff	sprintf@f,tblptrl
  1281  000436  C03A  FFF7         	movff	sprintf@f+1,tblptrh
  1282  00043A  4A39               	infsnz	sprintf@f,f,c
  1283  00043C  2A3A               	incf	sprintf@f+1,f,c
  1284  00043E                     	if	0	;tblptru may be non-zero
  1285  00043E                     	endif
  1286  00043E                     	if	0	;tblptru may be non-zero
  1287  00043E                     	endif
  1288  00043E  0008               	tblrd		*
  1289  000440  CFF5 F044          	movff	tablat,sprintf@c
  1290  000444  5044               	movf	sprintf@c,w,c
  1291  000446  A4D8               	btfss	status,2,c
  1292  000448  D768               	goto	i2l1072
  1293  00044A                     i2l1126:
  1294                           
  1295                           ;doprnt.c: 1538: *sp = 0;
  1296  00044A  C037  FFD9         	movff	sprintf@sp,fsr2l
  1297  00044E  C038  FFDA         	movff	sprintf@sp+1,fsr2h
  1298  000452  0E00               	movlw	0
  1299  000454  6EDF               	movwf	indf2,c
  1300  000456  0012               	return	
  1301  000458                     __end_of_sprintf:
  1302                           	opt stack 0
  1303                           pclatu	equ	0xFFB
  1304                           pclath	equ	0xFFA
  1305                           tblptru	equ	0xFF8
  1306                           tblptrh	equ	0xFF7
  1307                           tblptrl	equ	0xFF6
  1308                           tablat	equ	0xFF5
  1309                           prodh	equ	0xFF4
  1310                           prodl	equ	0xFF3
  1311                           intcon	equ	0xFF2
  1312                           postinc0	equ	0xFEE
  1313                           fsr0h	equ	0xFEA
  1314                           fsr0l	equ	0xFE9
  1315                           wreg	equ	0xFE8
  1316                           fsr1h	equ	0xFE2
  1317                           fsr1l	equ	0xFE1
  1318                           indf2	equ	0xFDF
  1319                           postinc2	equ	0xFDE
  1320                           postdec2	equ	0xFDD
  1321                           fsr2h	equ	0xFDA
  1322                           fsr2l	equ	0xFD9
  1323                           status	equ	0xFD8
  1324                           
  1325 ;; *************** function ___lwmod *****************
  1326 ;; Defined at:
  1327 ;;		line 8 in file "C:\Program Files (x86)\Microchip\xc8\v1.35\sources\common\lwmod.c"
  1328 ;; Parameters:    Size  Location     Type
  1329 ;;  dividend        2    7[COMRAM] unsigned int 
  1330 ;;  divisor         2    9[COMRAM] unsigned int 
  1331 ;; Auto vars:     Size  Location     Type
  1332 ;;  counter         1   11[COMRAM] unsigned char 
  1333 ;; Return value:  Size  Location     Type
  1334 ;;                  2    7[COMRAM] unsigned int 
  1335 ;; Registers used:
  1336 ;;		wreg, status,2, status,0
  1337 ;; Tracked objects:
  1338 ;;		On entry : 0/0
  1339 ;;		On exit  : 0/0
  1340 ;;		Unchanged: 0/0
  1341 ;; Data sizes:     COMRAM   BANK0   BANK1   BANK2
  1342 ;;      Params:         4       0       0       0
  1343 ;;      Locals:         1       0       0       0
  1344 ;;      Temps:          0       0       0       0
  1345 ;;      Totals:         5       0       0       0
  1346 ;;Total ram usage:        5 bytes
  1347 ;; Hardware stack levels used:    1
  1348 ;; This function calls:
  1349 ;;		Nothing
  1350 ;; This function is called by:
  1351 ;;		_sprintf
  1352 ;; This function uses a non-reentrant model
  1353 ;;
  1354                           
  1355                           	psect	text8
  1356  0006B8                     __ptext8:
  1357                           	opt stack 0
  1358  0006B8                     ___lwmod:
  1359                           	opt stack 24
  1360                           
  1361                           ;incstack = 0
  1362  0006B8  5034               	movf	___lwmod@divisor,w,c
  1363  0006BA  1035               	iorwf	___lwmod@divisor+1,w,c
  1364  0006BC  B4D8               	btfsc	status,2,c
  1365  0006BE  D018               	goto	i2l507
  1366  0006C0  0E01               	movlw	1
  1367  0006C2  6E36               	movwf	___lwmod@counter,c
  1368  0006C4  D004               	goto	i2l982
  1369  0006C6                     i2l980:
  1370  0006C6  90D8               	bcf	status,0,c
  1371  0006C8  3634               	rlcf	___lwmod@divisor,f,c
  1372  0006CA  3635               	rlcf	___lwmod@divisor+1,f,c
  1373  0006CC  2A36               	incf	___lwmod@counter,f,c
  1374  0006CE                     i2l982:
  1375  0006CE  AE35               	btfss	___lwmod@divisor+1,7,c
  1376  0006D0  D7FA               	goto	i2l980
  1377  0006D2                     i2l984:
  1378  0006D2  5034               	movf	___lwmod@divisor,w,c
  1379  0006D4  5C32               	subwf	___lwmod@dividend,w,c
  1380  0006D6  5035               	movf	___lwmod@divisor+1,w,c
  1381  0006D8  5833               	subwfb	___lwmod@dividend+1,w,c
  1382  0006DA  A0D8               	btfss	status,0,c
  1383  0006DC  D004               	goto	i2l988
  1384  0006DE  5034               	movf	___lwmod@divisor,w,c
  1385  0006E0  5E32               	subwf	___lwmod@dividend,f,c
  1386  0006E2  5035               	movf	___lwmod@divisor+1,w,c
  1387  0006E4  5A33               	subwfb	___lwmod@dividend+1,f,c
  1388  0006E6                     i2l988:
  1389  0006E6  90D8               	bcf	status,0,c
  1390  0006E8  3235               	rrcf	___lwmod@divisor+1,f,c
  1391  0006EA  3234               	rrcf	___lwmod@divisor,f,c
  1392  0006EC  2E36               	decfsz	___lwmod@counter,f,c
  1393  0006EE  D7F1               	goto	i2l984
  1394  0006F0                     i2l507:
  1395  0006F0  C032  F032         	movff	___lwmod@dividend,?___lwmod
  1396  0006F4  C033  F033         	movff	___lwmod@dividend+1,?___lwmod+1
  1397  0006F8  0012               	return		;funcret
  1398  0006FA                     __end_of___lwmod:
  1399                           	opt stack 0
  1400                           pclatu	equ	0xFFB
  1401                           pclath	equ	0xFFA
  1402                           tblptru	equ	0xFF8
  1403                           tblptrh	equ	0xFF7
  1404                           tblptrl	equ	0xFF6
  1405                           tablat	equ	0xFF5
  1406                           prodh	equ	0xFF4
  1407                           prodl	equ	0xFF3
  1408                           intcon	equ	0xFF2
  1409                           postinc0	equ	0xFEE
  1410                           fsr0h	equ	0xFEA
  1411                           fsr0l	equ	0xFE9
  1412                           wreg	equ	0xFE8
  1413                           fsr1h	equ	0xFE2
  1414                           fsr1l	equ	0xFE1
  1415                           indf2	equ	0xFDF
  1416                           postinc2	equ	0xFDE
  1417                           postdec2	equ	0xFDD
  1418                           fsr2h	equ	0xFDA
  1419                           fsr2l	equ	0xFD9
  1420                           status	equ	0xFD8
  1421                           
  1422 ;; *************** function ___lwdiv *****************
  1423 ;; Defined at:
  1424 ;;		line 8 in file "C:\Program Files (x86)\Microchip\xc8\v1.35\sources\common\lwdiv.c"
  1425 ;; Parameters:    Size  Location     Type
  1426 ;;  dividend        2    0[COMRAM] unsigned int 
  1427 ;;  divisor         2    2[COMRAM] unsigned int 
  1428 ;; Auto vars:     Size  Location     Type
  1429 ;;  quotient        2    4[COMRAM] unsigned int 
  1430 ;;  counter         1    6[COMRAM] unsigned char 
  1431 ;; Return value:  Size  Location     Type
  1432 ;;                  2    0[COMRAM] unsigned int 
  1433 ;; Registers used:
  1434 ;;		wreg, status,2, status,0
  1435 ;; Tracked objects:
  1436 ;;		On entry : 0/0
  1437 ;;		On exit  : 0/0
  1438 ;;		Unchanged: 0/0
  1439 ;; Data sizes:     COMRAM   BANK0   BANK1   BANK2
  1440 ;;      Params:         4       0       0       0
  1441 ;;      Locals:         3       0       0       0
  1442 ;;      Temps:          0       0       0       0
  1443 ;;      Totals:         7       0       0       0
  1444 ;;Total ram usage:        7 bytes
  1445 ;; Hardware stack levels used:    1
  1446 ;; This function calls:
  1447 ;;		Nothing
  1448 ;; This function is called by:
  1449 ;;		_sprintf
  1450 ;; This function uses a non-reentrant model
  1451 ;;
  1452                           
  1453                           	psect	text9
  1454  00061E                     __ptext9:
  1455                           	opt stack 0
  1456  00061E                     ___lwdiv:
  1457                           	opt stack 24
  1458                           
  1459                           ;incstack = 0
  1460  00061E  0E00               	movlw	0
  1461  000620  6E30               	movwf	___lwdiv@quotient+1,c
  1462  000622  0E00               	movlw	0
  1463  000624  6E2F               	movwf	___lwdiv@quotient,c
  1464  000626  502D               	movf	___lwdiv@divisor,w,c
  1465  000628  102E               	iorwf	___lwdiv@divisor+1,w,c
  1466  00062A  B4D8               	btfsc	status,2,c
  1467  00062C  D01C               	goto	i2l497
  1468  00062E  0E01               	movlw	1
  1469  000630  6E31               	movwf	___lwdiv@counter,c
  1470  000632  D004               	goto	i2l962
  1471  000634                     i2l960:
  1472  000634  90D8               	bcf	status,0,c
  1473  000636  362D               	rlcf	___lwdiv@divisor,f,c
  1474  000638  362E               	rlcf	___lwdiv@divisor+1,f,c
  1475  00063A  2A31               	incf	___lwdiv@counter,f,c
  1476  00063C                     i2l962:
  1477  00063C  AE2E               	btfss	___lwdiv@divisor+1,7,c
  1478  00063E  D7FA               	goto	i2l960
  1479  000640                     i2l964:
  1480  000640  90D8               	bcf	status,0,c
  1481  000642  362F               	rlcf	___lwdiv@quotient,f,c
  1482  000644  3630               	rlcf	___lwdiv@quotient+1,f,c
  1483  000646  502D               	movf	___lwdiv@divisor,w,c
  1484  000648  5C2B               	subwf	___lwdiv@dividend,w,c
  1485  00064A  502E               	movf	___lwdiv@divisor+1,w,c
  1486  00064C  582C               	subwfb	___lwdiv@dividend+1,w,c
  1487  00064E  A0D8               	btfss	status,0,c
  1488  000650  D005               	goto	i2l972
  1489  000652  502D               	movf	___lwdiv@divisor,w,c
  1490  000654  5E2B               	subwf	___lwdiv@dividend,f,c
  1491  000656  502E               	movf	___lwdiv@divisor+1,w,c
  1492  000658  5A2C               	subwfb	___lwdiv@dividend+1,f,c
  1493  00065A  802F               	bsf	___lwdiv@quotient,0,c
  1494  00065C                     i2l972:
  1495  00065C  90D8               	bcf	status,0,c
  1496  00065E  322E               	rrcf	___lwdiv@divisor+1,f,c
  1497  000660  322D               	rrcf	___lwdiv@divisor,f,c
  1498  000662  2E31               	decfsz	___lwdiv@counter,f,c
  1499  000664  D7ED               	goto	i2l964
  1500  000666                     i2l497:
  1501  000666  C02F  F02B         	movff	___lwdiv@quotient,?___lwdiv
  1502  00066A  C030  F02C         	movff	___lwdiv@quotient+1,?___lwdiv+1
  1503  00066E  0012               	return		;funcret
  1504  000670                     __end_of___lwdiv:
  1505                           	opt stack 0
  1506                           pclatu	equ	0xFFB
  1507                           pclath	equ	0xFFA
  1508                           tblptru	equ	0xFF8
  1509                           tblptrh	equ	0xFF7
  1510                           tblptrl	equ	0xFF6
  1511                           tablat	equ	0xFF5
  1512                           prodh	equ	0xFF4
  1513                           prodl	equ	0xFF3
  1514                           intcon	equ	0xFF2
  1515                           postinc0	equ	0xFEE
  1516                           fsr0h	equ	0xFEA
  1517                           fsr0l	equ	0xFE9
  1518                           wreg	equ	0xFE8
  1519                           fsr1h	equ	0xFE2
  1520                           fsr1l	equ	0xFE1
  1521                           indf2	equ	0xFDF
  1522                           postinc2	equ	0xFDE
  1523                           postdec2	equ	0xFDD
  1524                           fsr2h	equ	0xFDA
  1525                           fsr2l	equ	0xFD9
  1526                           status	equ	0xFD8
  1527                           
  1528 ;; *************** function _LCD_String *****************
  1529 ;; Defined at:
  1530 ;;		line 106 in file "lcd.h"
  1531 ;; Parameters:    Size  Location     Type
  1532 ;;  string          2    4[COMRAM] PTR unsigned char 
  1533 ;;		 -> buf(40), 
  1534 ;; Auto vars:     Size  Location     Type
  1535 ;;		None
  1536 ;; Return value:  Size  Location     Type
  1537 ;;		None               void
  1538 ;; Registers used:
  1539 ;;		wreg, fsr2l, fsr2h, status,2, status,0, cstack
  1540 ;; Tracked objects:
  1541 ;;		On entry : 0/0
  1542 ;;		On exit  : 0/0
  1543 ;;		Unchanged: 0/0
  1544 ;; Data sizes:     COMRAM   BANK0   BANK1   BANK2
  1545 ;;      Params:         2       0       0       0
  1546 ;;      Locals:         0       0       0       0
  1547 ;;      Temps:          1       0       0       0
  1548 ;;      Totals:         3       0       0       0
  1549 ;;Total ram usage:        3 bytes
  1550 ;; Hardware stack levels used:    1
  1551 ;; Hardware stack levels required when called:    3
  1552 ;; This function calls:
  1553 ;;		i2_SendLCD
  1554 ;; This function is called by:
  1555 ;;		_InterruptHandlerHigh
  1556 ;; This function uses a non-reentrant model
  1557 ;;
  1558                           
  1559                           	psect	text10
  1560  0006FA                     __ptext10:
  1561                           	opt stack 0
  1562  0006FA                     _LCD_String:
  1563                           	opt stack 22
  1564                           
  1565                           ;lcd.h: 107: while(*string != 0){
  1566                           
  1567                           ;incstack = 0
  1568  0006FA  D012               	goto	i2l1068
  1569  0006FC                     i2l1062:
  1570                           
  1571                           ;lcd.h: 108: SendLCD(*string++,1);
  1572  0006FC  0E01               	movlw	1
  1573  0006FE  6E2D               	movwf	i2SendLCD@type,c
  1574  000700  C02F  FFD9         	movff	LCD_String@string,fsr2l
  1575  000704  C030  FFDA         	movff	LCD_String@string+1,fsr2h
  1576  000708  50DF               	movf	indf2,w,c
  1577  00070A  ECAF  F003         	call	i2_SendLCD
  1578  00070E  4A2F               	infsnz	LCD_String@string,f,c
  1579  000710  2A30               	incf	LCD_String@string+1,f,c
  1580                           
  1581                           ;lcd.h: 109: _delay((unsigned long)((50)*(8000000/4000.0)));
  1582  000712  0E82               	movlw	130
  1583  000714  6E31               	movwf	??_LCD_String& (0+255),c
  1584  000716  0EDE               	movlw	222
  1585  000718                     i2u60_47:
  1586  000718  2EE8               	decfsz	wreg,f,c
  1587  00071A  D7FE               	goto	i2u60_47
  1588  00071C  2E31               	decfsz	??_LCD_String& (0+255),f,c
  1589  00071E  D7FC               	goto	i2u60_47
  1590  000720                     i2l1068:
  1591  000720  C02F  FFD9         	movff	LCD_String@string,fsr2l
  1592  000724  C030  FFDA         	movff	LCD_String@string+1,fsr2h
  1593  000728  50DF               	movf	indf2,w,c
  1594  00072A  B4D8               	btfsc	status,2,c
  1595  00072C  0012               	return	
  1596  00072E  D7E6               	goto	i2l1062
  1597  000730                     __end_of_LCD_String:
  1598                           	opt stack 0
  1599                           pclatu	equ	0xFFB
  1600                           pclath	equ	0xFFA
  1601                           tblptru	equ	0xFF8
  1602                           tblptrh	equ	0xFF7
  1603                           tblptrl	equ	0xFF6
  1604                           tablat	equ	0xFF5
  1605                           prodh	equ	0xFF4
  1606                           prodl	equ	0xFF3
  1607                           intcon	equ	0xFF2
  1608                           postinc0	equ	0xFEE
  1609                           fsr0h	equ	0xFEA
  1610                           fsr0l	equ	0xFE9
  1611                           wreg	equ	0xFE8
  1612                           fsr1h	equ	0xFE2
  1613                           fsr1l	equ	0xFE1
  1614                           indf2	equ	0xFDF
  1615                           postinc2	equ	0xFDE
  1616                           postdec2	equ	0xFDD
  1617                           fsr2h	equ	0xFDA
  1618                           fsr2l	equ	0xFD9
  1619                           status	equ	0xFD8
  1620                           
  1621 ;; *************** function i2_SendLCD *****************
  1622 ;; Defined at:
  1623 ;;		line 45 in file "lcd.h"
  1624 ;; Parameters:    Size  Location     Type
  1625 ;;  Byte            1    wreg     unsigned char 
  1626 ;;  type            1    2[COMRAM] unsigned char 
  1627 ;; Auto vars:     Size  Location     Type
  1628 ;;  Byte            1    3[COMRAM] unsigned char 
  1629 ;; Return value:  Size  Location     Type
  1630 ;;		None               void
  1631 ;; Registers used:
  1632 ;;		wreg, status,2, status,0, cstack
  1633 ;; Tracked objects:
  1634 ;;		On entry : 0/0
  1635 ;;		On exit  : 0/0
  1636 ;;		Unchanged: 0/0
  1637 ;; Data sizes:     COMRAM   BANK0   BANK1   BANK2
  1638 ;;      Params:         1       0       0       0
  1639 ;;      Locals:         1       0       0       0
  1640 ;;      Temps:          0       0       0       0
  1641 ;;      Totals:         2       0       0       0
  1642 ;;Total ram usage:        2 bytes
  1643 ;; Hardware stack levels used:    1
  1644 ;; Hardware stack levels required when called:    2
  1645 ;; This function calls:
  1646 ;;		i2_LCDout
  1647 ;; This function is called by:
  1648 ;;		_LCD_String
  1649 ;;		_InterruptHandlerHigh
  1650 ;; This function uses a non-reentrant model
  1651 ;;
  1652                           
  1653                           	psect	text11
  1654  00075E                     __ptext11:
  1655                           	opt stack 0
  1656  00075E                     i2_SendLCD:
  1657                           	opt stack 23
  1658                           
  1659                           ;incstack = 0
  1660                           ;i2SendLCD@Byte stored from wreg
  1661  00075E  6E2E               	movwf	i2SendLCD@Byte,c
  1662                           
  1663                           ;lcd.h: 48: LATAbits.LATA6 = type;
  1664  000760  B02D               	btfsc	i2SendLCD@type,0,c
  1665  000762  D002               	bra	i2u29_45
  1666  000764  9C89               	bcf	3977,6,c	;volatile
  1667  000766  D001               	bra	i2u29_46
  1668  000768                     i2u29_45:
  1669  000768  8C89               	bsf	3977,6,c	;volatile
  1670  00076A                     i2u29_46:
  1671                           
  1672                           ;lcd.h: 50: LCDout(Byte >> 4);
  1673  00076A  382E               	swapf	i2SendLCD@Byte,w,c
  1674  00076C  0B0F               	andlw	15
  1675  00076E  ECD3  F002         	call	i2_LCDout
  1676                           
  1677                           ;lcd.h: 51: _delay((unsigned long)((10)*(8000000/4000000.0)));
  1678  000772  0E06               	movlw	6
  1679  000774                     i2u61_47:
  1680  000774  2EE8               	decfsz	wreg,f,c
  1681  000776  D7FE               	goto	i2u61_47
  1682  000778  D000               	nop2		;nop
  1683                           
  1684                           ;lcd.h: 53: LCDout(Byte & 0b00001111);
  1685  00077A  502E               	movf	i2SendLCD@Byte,w,c
  1686  00077C  0B0F               	andlw	15
  1687  00077E  ECD3  F002         	call	i2_LCDout
  1688  000782  0012               	return		;funcret
  1689  000784                     __end_ofi2_SendLCD:
  1690                           	opt stack 0
  1691                           pclatu	equ	0xFFB
  1692                           pclath	equ	0xFFA
  1693                           tblptru	equ	0xFF8
  1694                           tblptrh	equ	0xFF7
  1695                           tblptrl	equ	0xFF6
  1696                           tablat	equ	0xFF5
  1697                           prodh	equ	0xFF4
  1698                           prodl	equ	0xFF3
  1699                           intcon	equ	0xFF2
  1700                           postinc0	equ	0xFEE
  1701                           fsr0h	equ	0xFEA
  1702                           fsr0l	equ	0xFE9
  1703                           wreg	equ	0xFE8
  1704                           fsr1h	equ	0xFE2
  1705                           fsr1l	equ	0xFE1
  1706                           indf2	equ	0xFDF
  1707                           postinc2	equ	0xFDE
  1708                           postdec2	equ	0xFDD
  1709                           fsr2h	equ	0xFDA
  1710                           fsr2l	equ	0xFD9
  1711                           status	equ	0xFD8
  1712                           
  1713 ;; *************** function i2_LCDout *****************
  1714 ;; Defined at:
  1715 ;;		line 33 in file "lcd.h"
  1716 ;; Parameters:    Size  Location     Type
  1717 ;;  number          1    wreg     unsigned char 
  1718 ;; Auto vars:     Size  Location     Type
  1719 ;;  number          1    1[COMRAM] unsigned char 
  1720 ;; Return value:  Size  Location     Type
  1721 ;;		None               void
  1722 ;; Registers used:
  1723 ;;		wreg, status,2, status,0, cstack
  1724 ;; Tracked objects:
  1725 ;;		On entry : 0/0
  1726 ;;		On exit  : 0/0
  1727 ;;		Unchanged: 0/0
  1728 ;; Data sizes:     COMRAM   BANK0   BANK1   BANK2
  1729 ;;      Params:         0       0       0       0
  1730 ;;      Locals:         1       0       0       0
  1731 ;;      Temps:          1       0       0       0
  1732 ;;      Totals:         2       0       0       0
  1733 ;;Total ram usage:        2 bytes
  1734 ;; Hardware stack levels used:    1
  1735 ;; Hardware stack levels required when called:    1
  1736 ;; This function calls:
  1737 ;;		i2_E_TOG
  1738 ;; This function is called by:
  1739 ;;		i2_SendLCD
  1740 ;; This function uses a non-reentrant model
  1741 ;;
  1742                           
  1743                           	psect	text12
  1744  0005A6                     __ptext12:
  1745                           	opt stack 0
  1746  0005A6                     i2_LCDout:
  1747                           	opt stack 23
  1748                           
  1749                           ;incstack = 0
  1750                           ;i2LCDout@number stored from wreg
  1751  0005A6  6E2C               	movwf	i2LCDout@number,c
  1752                           
  1753                           ;lcd.h: 35: LATDbits.LD1 = number >> 3 & 0b00000001;
  1754  0005A8  C02C  F02B         	movff	i2LCDout@number,??i2_LCDout
  1755  0005AC  90D8               	bcf	status,0,c
  1756  0005AE  322B               	rrcf	??i2_LCDout,f,c
  1757  0005B0  90D8               	bcf	status,0,c
  1758  0005B2  322B               	rrcf	??i2_LCDout,f,c
  1759  0005B4  90D8               	bcf	status,0,c
  1760  0005B6  322B               	rrcf	??i2_LCDout,f,c
  1761  0005B8  0E01               	movlw	1
  1762  0005BA  162B               	andwf	??i2_LCDout,f,c
  1763  0005BC  462B               	rlncf	??i2_LCDout,f,c
  1764  0005BE  508C               	movf	3980,w,c	;volatile
  1765  0005C0  182B               	xorwf	??i2_LCDout,w,c
  1766  0005C2  0BFD               	andlw	-3
  1767  0005C4  182B               	xorwf	??i2_LCDout,w,c
  1768  0005C6  6E8C               	movwf	3980,c	;volatile
  1769                           
  1770                           ;lcd.h: 36: LATDbits.LD0 = (number >> 2) & 0b00000001;
  1771  0005C8  C02C  F02B         	movff	i2LCDout@number,??i2_LCDout
  1772  0005CC  90D8               	bcf	status,0,c
  1773  0005CE  322B               	rrcf	??i2_LCDout,f,c
  1774  0005D0  90D8               	bcf	status,0,c
  1775  0005D2  322B               	rrcf	??i2_LCDout,f,c
  1776  0005D4  0E01               	movlw	1
  1777  0005D6  162B               	andwf	??i2_LCDout,f,c
  1778  0005D8  508C               	movf	3980,w,c	;volatile
  1779  0005DA  182B               	xorwf	??i2_LCDout,w,c
  1780  0005DC  0BFE               	andlw	-2
  1781  0005DE  182B               	xorwf	??i2_LCDout,w,c
  1782  0005E0  6E8C               	movwf	3980,c	;volatile
  1783                           
  1784                           ;lcd.h: 37: LATCbits.LC2 = (number >> 1) & 0b00000001;
  1785  0005E2  C02C  F02B         	movff	i2LCDout@number,??i2_LCDout
  1786  0005E6  90D8               	bcf	status,0,c
  1787  0005E8  322B               	rrcf	??i2_LCDout,f,c
  1788  0005EA  0E01               	movlw	1
  1789  0005EC  162B               	andwf	??i2_LCDout,f,c
  1790  0005EE  462B               	rlncf	??i2_LCDout,f,c
  1791  0005F0  462B               	rlncf	??i2_LCDout,f,c
  1792  0005F2  508B               	movf	3979,w,c	;volatile
  1793  0005F4  182B               	xorwf	??i2_LCDout,w,c
  1794  0005F6  0BFB               	andlw	-5
  1795  0005F8  182B               	xorwf	??i2_LCDout,w,c
  1796  0005FA  6E8B               	movwf	3979,c	;volatile
  1797                           
  1798                           ;lcd.h: 38: LATCbits.LC1 = number & 0b00000001;
  1799  0005FC  C02C  F02B         	movff	i2LCDout@number,??i2_LCDout
  1800  000600  0E01               	movlw	1
  1801  000602  162B               	andwf	??i2_LCDout,f,c
  1802  000604  462B               	rlncf	??i2_LCDout,f,c
  1803  000606  508B               	movf	3979,w,c	;volatile
  1804  000608  182B               	xorwf	??i2_LCDout,w,c
  1805  00060A  0BFD               	andlw	-3
  1806  00060C  182B               	xorwf	??i2_LCDout,w,c
  1807  00060E  6E8B               	movwf	3979,c	;volatile
  1808                           
  1809                           ;lcd.h: 40: E_TOG();
  1810  000610  ECE3  F003         	call	i2_E_TOG	;wreg free
  1811                           
  1812                           ;lcd.h: 41: _delay((unsigned long)((5)*(8000000/4000000.0)));
  1813  000614  0E03               	movlw	3
  1814  000616                     i2u62_47:
  1815  000616  2EE8               	decfsz	wreg,f,c
  1816  000618  D7FE               	goto	i2u62_47
  1817  00061A  F000               	nop	
  1818  00061C  0012               	return		;funcret
  1819  00061E                     __end_ofi2_LCDout:
  1820                           	opt stack 0
  1821                           pclatu	equ	0xFFB
  1822                           pclath	equ	0xFFA
  1823                           tblptru	equ	0xFF8
  1824                           tblptrh	equ	0xFF7
  1825                           tblptrl	equ	0xFF6
  1826                           tablat	equ	0xFF5
  1827                           prodh	equ	0xFF4
  1828                           prodl	equ	0xFF3
  1829                           intcon	equ	0xFF2
  1830                           postinc0	equ	0xFEE
  1831                           fsr0h	equ	0xFEA
  1832                           fsr0l	equ	0xFE9
  1833                           wreg	equ	0xFE8
  1834                           fsr1h	equ	0xFE2
  1835                           fsr1l	equ	0xFE1
  1836                           indf2	equ	0xFDF
  1837                           postinc2	equ	0xFDE
  1838                           postdec2	equ	0xFDD
  1839                           fsr2h	equ	0xFDA
  1840                           fsr2l	equ	0xFD9
  1841                           status	equ	0xFD8
  1842                           
  1843 ;; *************** function i2_E_TOG *****************
  1844 ;; Defined at:
  1845 ;;		line 26 in file "lcd.h"
  1846 ;; Parameters:    Size  Location     Type
  1847 ;;		None
  1848 ;; Auto vars:     Size  Location     Type
  1849 ;;		None
  1850 ;; Return value:  Size  Location     Type
  1851 ;;		None               void
  1852 ;; Registers used:
  1853 ;;		wreg
  1854 ;; Tracked objects:
  1855 ;;		On entry : 0/0
  1856 ;;		On exit  : 0/0
  1857 ;;		Unchanged: 0/0
  1858 ;; Data sizes:     COMRAM   BANK0   BANK1   BANK2
  1859 ;;      Params:         0       0       0       0
  1860 ;;      Locals:         0       0       0       0
  1861 ;;      Temps:          0       0       0       0
  1862 ;;      Totals:         0       0       0       0
  1863 ;;Total ram usage:        0 bytes
  1864 ;; Hardware stack levels used:    1
  1865 ;; This function calls:
  1866 ;;		Nothing
  1867 ;; This function is called by:
  1868 ;;		i2_LCDout
  1869 ;; This function uses a non-reentrant model
  1870 ;;
  1871                           
  1872                           	psect	text13
  1873  0007C6                     __ptext13:
  1874                           	opt stack 0
  1875  0007C6                     i2_E_TOG:
  1876                           	opt stack 23
  1877                           
  1878                           ;lcd.h: 27: LATCbits.LC0 = 1;
  1879                           
  1880                           ;incstack = 0
  1881  0007C6  808B               	bsf	3979,0,c	;volatile
  1882                           
  1883                           ;lcd.h: 28: _delay((unsigned long)((5)*(8000000/4000000.0)));
  1884  0007C8  0E03               	movlw	3
  1885  0007CA                     i2u63_47:
  1886  0007CA  2EE8               	decfsz	wreg,f,c
  1887  0007CC  D7FE               	goto	i2u63_47
  1888  0007CE  F000               	nop	
  1889                           
  1890                           ;lcd.h: 29: LATCbits.LC0 = 0;
  1891  0007D0  908B               	bcf	3979,0,c	;volatile
  1892  0007D2  0012               	return		;funcret
  1893  0007D4                     __end_ofi2_E_TOG:
  1894                           	opt stack 0
  1895                           pclatu	equ	0xFFB
  1896                           pclath	equ	0xFFA
  1897                           tblptru	equ	0xFF8
  1898                           tblptrh	equ	0xFF7
  1899                           tblptrl	equ	0xFF6
  1900                           tablat	equ	0xFF5
  1901                           prodh	equ	0xFF4
  1902                           prodl	equ	0xFF3
  1903                           intcon	equ	0xFF2
  1904                           postinc0	equ	0xFEE
  1905                           fsr0h	equ	0xFEA
  1906                           fsr0l	equ	0xFE9
  1907                           wreg	equ	0xFE8
  1908                           fsr1h	equ	0xFE2
  1909                           fsr1l	equ	0xFE1
  1910                           indf2	equ	0xFDF
  1911                           postinc2	equ	0xFDE
  1912                           postdec2	equ	0xFDD
  1913                           fsr2h	equ	0xFDA
  1914                           fsr2l	equ	0xFD9
  1915                           status	equ	0xFD8
  1916                           pclatu	equ	0xFFB
  1917                           pclath	equ	0xFFA
  1918                           tblptru	equ	0xFF8
  1919                           tblptrh	equ	0xFF7
  1920                           tblptrl	equ	0xFF6
  1921                           tablat	equ	0xFF5
  1922                           prodh	equ	0xFF4
  1923                           prodl	equ	0xFF3
  1924                           intcon	equ	0xFF2
  1925                           postinc0	equ	0xFEE
  1926                           fsr0h	equ	0xFEA
  1927                           fsr0l	equ	0xFE9
  1928                           wreg	equ	0xFE8
  1929                           fsr1h	equ	0xFE2
  1930                           fsr1l	equ	0xFE1
  1931                           indf2	equ	0xFDF
  1932                           postinc2	equ	0xFDE
  1933                           postdec2	equ	0xFDD
  1934                           fsr2h	equ	0xFDA
  1935                           fsr2l	equ	0xFD9
  1936                           status	equ	0xFD8
  1937                           
  1938                           	psect	rparam
  1939  0000                     pclatu	equ	0xFFB
  1940                           pclath	equ	0xFFA
  1941                           tblptru	equ	0xFF8
  1942                           tblptrh	equ	0xFF7
  1943                           tblptrl	equ	0xFF6
  1944                           tablat	equ	0xFF5
  1945                           prodh	equ	0xFF4
  1946                           prodl	equ	0xFF3
  1947                           intcon	equ	0xFF2
  1948                           postinc0	equ	0xFEE
  1949                           fsr0h	equ	0xFEA
  1950                           fsr0l	equ	0xFE9
  1951                           wreg	equ	0xFE8
  1952                           fsr1h	equ	0xFE2
  1953                           fsr1l	equ	0xFE1
  1954                           indf2	equ	0xFDF
  1955                           postinc2	equ	0xFDE
  1956                           postdec2	equ	0xFDD
  1957                           fsr2h	equ	0xFDA
  1958                           fsr2l	equ	0xFD9
  1959                           status	equ	0xFD8
  1960                           
  1961                           	psect	temp
  1962  000054                     btemp:
  1963                           	opt stack 0
  1964  000054                     	ds	1
  1965  0000                     int$flags	set	btemp
  1966                           pclatu	equ	0xFFB
  1967                           pclath	equ	0xFFA
  1968                           tblptru	equ	0xFF8
  1969                           tblptrh	equ	0xFF7
  1970                           tblptrl	equ	0xFF6
  1971                           tablat	equ	0xFF5
  1972                           prodh	equ	0xFF4
  1973                           prodl	equ	0xFF3
  1974                           intcon	equ	0xFF2
  1975                           postinc0	equ	0xFEE
  1976                           fsr0h	equ	0xFEA
  1977                           fsr0l	equ	0xFE9
  1978                           wreg	equ	0xFE8
  1979                           fsr1h	equ	0xFE2
  1980                           fsr1l	equ	0xFE1
  1981                           indf2	equ	0xFDF
  1982                           postinc2	equ	0xFDE
  1983                           postdec2	equ	0xFDD
  1984                           fsr2h	equ	0xFDA
  1985                           fsr2l	equ	0xFD9
  1986                           status	equ	0xFD8


Data Sizes:
    Strings     3
    Constant    10
    Data        0
    BSS         42
    Persistent  0
    Stack       0

Auto Spaces:
    Space          Size  Autos    Used
    COMRAM           94     41      83
    BANK0           160      5       5
    BANK1           256      0       0
    BANK2           256      0       0

Pointer List with Targets:

    sprintf@f	PTR const unsigned char  size(2) Largest target is 3
		 -> STR_1(CODE[3]), 

    sprintf@sp	PTR unsigned char  size(2) Largest target is 40
		 -> buf(COMRAM[40]), 

    sprintf@ap	PTR void [1] size(2) Largest target is 2
		 -> ?_sprintf(COMRAM[2]), 

    LCD_String@string	PTR unsigned char  size(2) Largest target is 40
		 -> buf(COMRAM[40]), 


Critical Paths under _main in COMRAM

    None.

Critical Paths under _InterruptHandlerHigh in COMRAM

    _InterruptHandlerHigh->_sprintf
    _sprintf->___lwmod
    ___lwmod->___lwdiv
    _LCD_String->i2_SendLCD
    i2_SendLCD->i2_LCDout

Critical Paths under _main in BANK0

    _main->_LCD_Init
    _main->_SetLine
    _SetLine->_SendLCD
    _LCD_Init->_SendLCD
    _SendLCD->_LCDout

Critical Paths under _InterruptHandlerHigh in BANK0

    None.

Critical Paths under _main in BANK1

    None.

Critical Paths under _InterruptHandlerHigh in BANK1

    None.

Critical Paths under _main in BANK2

    None.

Critical Paths under _InterruptHandlerHigh in BANK2

    None.

Call Graph Tables:

 ---------------------------------------------------------------------------------
 (Depth) Function   	        Calls       Base Space   Used Autos Params    Refs
 ---------------------------------------------------------------------------------
 (0) _main                                                 0     0      0    1758
                           _LCD_Init
                            _SetLine
 ---------------------------------------------------------------------------------
 (1) _SetLine                                              1     1      0     866
                                              4 BANK0      1     1      0
                            _SendLCD
 ---------------------------------------------------------------------------------
 (1) _LCD_Init                                             1     1      0     892
                                              4 BANK0      1     1      0
                             _LCDout
                            _SendLCD
 ---------------------------------------------------------------------------------
 (2) _SendLCD                                              2     1      1     804
                                              2 BANK0      2     1      1
                             _LCDout
 ---------------------------------------------------------------------------------
 (3) _LCDout                                               2     2      0      88
                                              0 BANK0      2     2      0
                              _E_TOG
 ---------------------------------------------------------------------------------
 (4) _E_TOG                                                0     0      0       0
 ---------------------------------------------------------------------------------
 Estimated maximum stack depth 4
 ---------------------------------------------------------------------------------
 (Depth) Function   	        Calls       Base Space   Used Autos Params    Refs
 ---------------------------------------------------------------------------------
 (5) _InterruptHandlerHigh                                15    15      0    1703
                                             26 COMRAM    15    15      0
                         _LCD_String
                            _sprintf
                          i2_SendLCD
 ---------------------------------------------------------------------------------
 (6) _sprintf                                             23    17      6    1182
                                             12 COMRAM    14     8      6
                            ___lwdiv
                            ___lwmod
 ---------------------------------------------------------------------------------
 (7) ___lwmod                                              5     1      4     287
                                              7 COMRAM     5     1      4
                            ___lwdiv (ARG)
 ---------------------------------------------------------------------------------
 (7) ___lwdiv                                              7     3      4     290
                                              0 COMRAM     7     3      4
 ---------------------------------------------------------------------------------
 (6) _LCD_String                                           3     1      2     315
                                              4 COMRAM     3     1      2
                          i2_SendLCD
 ---------------------------------------------------------------------------------
 (6) i2_SendLCD                                            2     1      1     206
                                              2 COMRAM     2     1      1
                           i2_LCDout
 ---------------------------------------------------------------------------------
 (7) i2_LCDout                                             2     2      0      88
                                              0 COMRAM     2     2      0
                            i2_E_TOG
 ---------------------------------------------------------------------------------
 (8) i2_E_TOG                                              0     0      0       0
 ---------------------------------------------------------------------------------
 Estimated maximum stack depth 8
 ---------------------------------------------------------------------------------

 Call Graph Graphs:

 _main (ROOT)
   _LCD_Init
     _LCDout
       _E_TOG
     _SendLCD
       _LCDout
         _E_TOG
   _SetLine
     _SendLCD
       _LCDout
         _E_TOG

 _InterruptHandlerHigh (ROOT)
   _LCD_String
     i2_SendLCD
       i2_LCDout
         i2_E_TOG
   _sprintf
     ___lwdiv
     ___lwmod
       ___lwdiv (ARG)
   i2_SendLCD
     i2_LCDout
       i2_E_TOG

 Address spaces:
Name               Size   Autos  Total    Cost      Usage
BIGRAM             2FF      0       0      10        0.0%
EEDATA             100      0       0       0        0.0%
BITBANK2           100      0       0       8        0.0%
BANK2              100      0       0       9        0.0%
BITBANK1           100      0       0       6        0.0%
BANK1              100      0       0       7        0.0%
BITBANK0            A0      0       0       4        0.0%
BANK0               A0      5       5       5        3.1%
BITCOMRAM           5E      0       0       0        0.0%
COMRAM              5E     29      53       1       88.3%
BITSFR               0      0       0      40        0.0%
SFR                  0      0       0      40        0.0%
STACK                0      0       0       2        0.0%
NULL                 0      0       0       0        0.0%
ABS                  0      0      58       3        0.0%
DATA                 0      0      58      11        0.0%
CODE                 0      0       0       0        0.0%


Microchip Technology PIC18 Macro Assembler V1.35 build -356382666 
Symbol Table                                                                                   Tue Oct 31 16:11:29 2017

                           l60 07B6                             l56 07A2                    ?_LCD_String 002F  
                          u435 073E                            u507 049A                            u436 0740  
                          u517 04A8                            u527 04BC                            u537 04D6  
                          u547 04EE                            u557 0502                            u477 06B0  
                          u567 074C                            u487 047C                            u577 059E  
                          u497 048C                            u587 07BC                            _buf 0003  
                          wreg 000FE8                           l1220 068A                           l1224 06A2  
                         l1226 06AE                           STR_1 030B                           i2l66 008E  
              __end_ofi2_E_TOG 07D4                           _main 079E                           fsr0h 000FEA  
                         fsr1h 000FE2                           fsr0l 000FE9                           fsr2h 000FDA  
                         fsr1l 000FE1                           indf2 000FDF                           fsr2l 000FD9  
                         btemp 0054                           pclat 000FFA                           prodh 000FF4  
                         prodl 000FF3                           start 00CA                   ___param_bank 000010  
              __end_of_SendLCD 075E                __end_of_SetLine 06B8               __end_of_LCD_Init 050A  
                        ?_main 002B                __end_of___lwdiv 0670                __end_of___lwmod 06FA  
                        i2l507 06F0                          i2l497 0666                          i2l960 0634  
                        i2l962 063C                          i2l972 065C                          i2l964 0640  
                        i2l980 06C6                          i2l982 06CE                          i2l984 06D2  
                        i2l988 06E6                          _E_TOG 07B8               __end_ofi2_LCDout 061E  
                        _TRISC 000F94                          _TRISD 000F95                __end_of_dpowers 030B  
           __size_ofi2_SendLCD 0026                          tablat 000FF5                          status 000FD8  
          __size_of_LCD_String 0036                __end_of_sprintf 0458                __initialization 0784  
                 __end_of_main 07B8                 __CFG_OSC$IRCIO 000000               LCD_String@string 002F  
                       ??_main 0065                  __activetblptr 000002                         ?_E_TOG 002B  
                    ??i2_E_TOG 002B                         i2l1122 042A                         i2l1114 03D2  
                       i2l1116 03D8                         i2l1108 03B6                         i2l1124 0432  
                       i2l1062 06FC                         i2l1126 044A                         i2l1072 031A  
                       i2l1068 0720                         i2l1084 035E                         i2l1094 0386  
                       i2l1078 0334                         i2l1096 038A                         _LCDout 050A  
                  SendLCD@Byte 0063                         _OSCCON 000FD3                    SendLCD@type 0062  
                    ??_SendLCD 0063                      ??_SetLine 0064                      ??___lwdiv 002F  
                    ??___lwmod 0036                         clear_0 078A              __end_ofi2_SendLCD 0784  
                 __mediumconst 0000                         tblptrh 000FF7                         tblptrl 000FF6  
                       tblptru 000FF8                      ??_sprintf 003D                     __accesstop 0060  
      __end_of__initialization 0790                      ?_LCD_Init 002B                  ___rparam_used 000001  
                  SetLine@line 0064                  __end_of_E_TOG 07C6                      ?i2_LCDout 002B  
               __pcstackCOMRAM 002B                   ??_LCD_String 0031                        ??_E_TOG 0060  
__size_of_InterruptHandlerHigh 00C2                        ?_LCDout 002B                     ??_LCD_Init 0064  
           __end_of_LCD_String 0730                     ??i2_LCDout 002B                        i2_E_TOG 07C6  
                      i2u60_47 0718                        i2u29_45 0768                        i2u29_46 076A  
                      i2u61_47 0774                        i2u62_47 0616                        i2u63_47 07CA  
                      i2u59_47 005A                __size_of_LCDout 009C                        _SendLCD 0730  
                      __Hparam 0000                        _SetLine 0670                        __Lparam 0000  
                      ___lwdiv 061E                        ___lwmod 06B8                   __psmallconst 0300  
                      __pcinit 0784                        __ramtop 0300                        __ptext0 079E  
                      __ptext1 0670                        __ptext2 0458                        __ptext3 0730  
                      __ptext4 050A                        __ptext5 07B8                        __ptext7 0310  
                      __ptext8 06B8                        __ptext9 061E                        _dpowers 0301  
                 LCDout@number 0061                        _sprintf 0310           end_of_initialization 0790  
                __Lmediumconst 0000                        postdec2 000FDD                        postinc0 000FEE  
                      postinc2 000FDE                      i2_SendLCD 075E                      _TRISAbits 000F92  
                    _TRISCbits 000F94                 __end_of_LCDout 05A6              __size_of_LCD_Init 00B2  
            __size_ofi2_LCDout 0078                     ?i2_SendLCD 002D            start_initialization 0784  
                     ??_LCDout 0060   __end_of_InterruptHandlerHigh 00CA                    __pbssCOMRAM 0001  
                __pcstackBANK0 0060                       ?i2_E_TOG 002B                 i2LCDout@number 002C  
                  sprintf@flag 0040                    sprintf@prec 0041                       ?_SendLCD 0062  
                     ?_SetLine 002B               ___lwdiv@dividend 002B                      __pintcode 0008  
                     ?___lwdiv 002B                       ?___lwmod 0032                    __smallconst 0300  
               __size_of_E_TOG 000E                    ??i2_SendLCD 002E               ___lwdiv@quotient 002F  
                     ?_sprintf 0037                       _LCD_Init 0458                       _LATAbits 000F89  
                     _LATCbits 000F8B                       _LATDbits 000F8C                       i2_LCDout 05A6  
         _InterruptHandlerHigh 0008               __size_ofi2_E_TOG 000E                  i2SendLCD@Byte 002E  
                i2SendLCD@type 002D                       __Hrparam 0000               __size_of_SendLCD 002E  
                     __Lrparam 0000               __size_of_SetLine 0048               __size_of___lwdiv 0052  
             __size_of___lwmod 0042          ?_InterruptHandlerHigh 002B                     sprintf@val 0042  
              ___lwdiv@divisor 002D                ___lwdiv@counter 0031                       __ptext10 06FA  
                     __ptext11 075E                       __ptext12 05A6                       __ptext13 07C6  
                     _btnCount 0001               __size_of_sprintf 0148                  __size_of_main 001A  
                     int$flags 0054                     _LCD_String 06FA                     _INTCONbits 000FF2  
                     intlevel2 0000                      sprintf@ap 003E                      sprintf@sp 0037  
             ___lwmod@dividend 0032                     _OSCCONbits 000FD3         ??_InterruptHandlerHigh 0045  
                     sprintf@c 0044                       sprintf@f 0039                ___lwmod@divisor 0034  
              ___lwmod@counter 0036  
